
embeded-code.elf:     file format elf32-avr

Sections:
Idx Name          Size      VMA       LMA       File off  Algn
  0 .data         00000106  00800100  00000cc2  00000d56  2**0
                  CONTENTS, ALLOC, LOAD, DATA
  1 .text         00000cc2  00000000  00000000  00000094  2**1
                  CONTENTS, ALLOC, LOAD, READONLY, CODE
  2 .bss          00000002  00800206  00800206  00000e5c  2**0
                  ALLOC
  3 .comment      0000005c  00000000  00000000  00000e5c  2**0
                  CONTENTS, READONLY
  4 .note.gnu.avr.deviceinfo 0000003c  00000000  00000000  00000eb8  2**2
                  CONTENTS, READONLY
  5 .debug_aranges 000000b8  00000000  00000000  00000ef4  2**0
                  CONTENTS, READONLY, DEBUGGING
  6 .debug_info   0000138f  00000000  00000000  00000fac  2**0
                  CONTENTS, READONLY, DEBUGGING
  7 .debug_abbrev 0000090e  00000000  00000000  0000233b  2**0
                  CONTENTS, READONLY, DEBUGGING
  8 .debug_line   000007d8  00000000  00000000  00002c49  2**0
                  CONTENTS, READONLY, DEBUGGING
  9 .debug_frame  00000210  00000000  00000000  00003424  2**2
                  CONTENTS, READONLY, DEBUGGING
 10 .debug_str    00000567  00000000  00000000  00003634  2**0
                  CONTENTS, READONLY, DEBUGGING
 11 .debug_loc    0000095f  00000000  00000000  00003b9b  2**0
                  CONTENTS, READONLY, DEBUGGING
 12 .debug_ranges 000000c0  00000000  00000000  000044fa  2**0
                  CONTENTS, READONLY, DEBUGGING

Disassembly of section .text:

00000000 <__vectors>:
   0:	0c 94 34 00 	jmp	0x68	; 0x68 <__ctors_end>
   4:	0c 94 fe 01 	jmp	0x3fc	; 0x3fc <__vector_1>
   8:	0c 94 51 00 	jmp	0xa2	; 0xa2 <__bad_interrupt>
   c:	0c 94 51 00 	jmp	0xa2	; 0xa2 <__bad_interrupt>
  10:	0c 94 51 00 	jmp	0xa2	; 0xa2 <__bad_interrupt>
  14:	0c 94 51 00 	jmp	0xa2	; 0xa2 <__bad_interrupt>
  18:	0c 94 51 00 	jmp	0xa2	; 0xa2 <__bad_interrupt>
  1c:	0c 94 51 00 	jmp	0xa2	; 0xa2 <__bad_interrupt>
  20:	0c 94 51 00 	jmp	0xa2	; 0xa2 <__bad_interrupt>
  24:	0c 94 51 00 	jmp	0xa2	; 0xa2 <__bad_interrupt>
  28:	0c 94 51 00 	jmp	0xa2	; 0xa2 <__bad_interrupt>
  2c:	0c 94 51 00 	jmp	0xa2	; 0xa2 <__bad_interrupt>
  30:	0c 94 51 00 	jmp	0xa2	; 0xa2 <__bad_interrupt>
  34:	0c 94 51 00 	jmp	0xa2	; 0xa2 <__bad_interrupt>
  38:	0c 94 51 00 	jmp	0xa2	; 0xa2 <__bad_interrupt>
  3c:	0c 94 51 00 	jmp	0xa2	; 0xa2 <__bad_interrupt>
  40:	0c 94 51 00 	jmp	0xa2	; 0xa2 <__bad_interrupt>
  44:	0c 94 51 00 	jmp	0xa2	; 0xa2 <__bad_interrupt>
  48:	0c 94 51 00 	jmp	0xa2	; 0xa2 <__bad_interrupt>
  4c:	0c 94 51 00 	jmp	0xa2	; 0xa2 <__bad_interrupt>
  50:	0c 94 51 00 	jmp	0xa2	; 0xa2 <__bad_interrupt>
  54:	0c 94 51 00 	jmp	0xa2	; 0xa2 <__bad_interrupt>
  58:	0c 94 51 00 	jmp	0xa2	; 0xa2 <__bad_interrupt>
  5c:	0c 94 51 00 	jmp	0xa2	; 0xa2 <__bad_interrupt>
  60:	0c 94 51 00 	jmp	0xa2	; 0xa2 <__bad_interrupt>
  64:	0c 94 51 00 	jmp	0xa2	; 0xa2 <__bad_interrupt>

00000068 <__ctors_end>:
  68:	11 24       	eor	r1, r1
  6a:	1f be       	out	0x3f, r1	; 63
  6c:	cf ef       	ldi	r28, 0xFF	; 255
  6e:	d8 e0       	ldi	r29, 0x08	; 8
  70:	de bf       	out	0x3e, r29	; 62
  72:	cd bf       	out	0x3d, r28	; 61

00000074 <__do_copy_data>:
  74:	12 e0       	ldi	r17, 0x02	; 2
  76:	a0 e0       	ldi	r26, 0x00	; 0
  78:	b1 e0       	ldi	r27, 0x01	; 1
  7a:	e2 ec       	ldi	r30, 0xC2	; 194
  7c:	fc e0       	ldi	r31, 0x0C	; 12
  7e:	02 c0       	rjmp	.+4      	; 0x84 <__do_copy_data+0x10>
  80:	05 90       	lpm	r0, Z+
  82:	0d 92       	st	X+, r0
  84:	a6 30       	cpi	r26, 0x06	; 6
  86:	b1 07       	cpc	r27, r17
  88:	d9 f7       	brne	.-10     	; 0x80 <__do_copy_data+0xc>

0000008a <__do_clear_bss>:
  8a:	22 e0       	ldi	r18, 0x02	; 2
  8c:	a6 e0       	ldi	r26, 0x06	; 6
  8e:	b2 e0       	ldi	r27, 0x02	; 2
  90:	01 c0       	rjmp	.+2      	; 0x94 <.do_clear_bss_start>

00000092 <.do_clear_bss_loop>:
  92:	1d 92       	st	X+, r1

00000094 <.do_clear_bss_start>:
  94:	a8 30       	cpi	r26, 0x08	; 8
  96:	b2 07       	cpc	r27, r18
  98:	e1 f7       	brne	.-8      	; 0x92 <.do_clear_bss_loop>
  9a:	0e 94 17 02 	call	0x42e	; 0x42e <main>
  9e:	0c 94 5f 06 	jmp	0xcbe	; 0xcbe <_exit>

000000a2 <__bad_interrupt>:
  a2:	0c 94 00 00 	jmp	0	; 0x0 <__vectors>

000000a6 <USART_Init>:
    _delay_ms(2);
}

void LCD_I2C_SetCursor(uint8_t row, uint8_t col) {
    uint8_t pos = (row == 0) ? (0x80 + col) : (0xC0 + col);
    LCD_I2C_Cmd(pos);
  a6:	10 92 c5 00 	sts	0x00C5, r1	; 0x8000c5 <__TEXT_REGION_LENGTH__+0x7e00c5>
  aa:	89 e1       	ldi	r24, 0x19	; 25
  ac:	80 93 c4 00 	sts	0x00C4, r24	; 0x8000c4 <__TEXT_REGION_LENGTH__+0x7e00c4>
  b0:	88 e0       	ldi	r24, 0x08	; 8
  b2:	80 93 c1 00 	sts	0x00C1, r24	; 0x8000c1 <__TEXT_REGION_LENGTH__+0x7e00c1>
  b6:	86 e0       	ldi	r24, 0x06	; 6
  b8:	80 93 c2 00 	sts	0x00C2, r24	; 0x8000c2 <__TEXT_REGION_LENGTH__+0x7e00c2>
  bc:	08 95       	ret

000000be <USART_TxChar>:
  be:	e0 ec       	ldi	r30, 0xC0	; 192
  c0:	f0 e0       	ldi	r31, 0x00	; 0
  c2:	90 81       	ld	r25, Z
  c4:	95 ff       	sbrs	r25, 5
  c6:	fd cf       	rjmp	.-6      	; 0xc2 <USART_TxChar+0x4>
  c8:	80 93 c6 00 	sts	0x00C6, r24	; 0x8000c6 <__TEXT_REGION_LENGTH__+0x7e00c6>
  cc:	08 95       	ret

000000ce <USART_SendString>:
  ce:	cf 93       	push	r28
  d0:	df 93       	push	r29
  d2:	ec 01       	movw	r28, r24
  d4:	88 81       	ld	r24, Y
  d6:	88 23       	and	r24, r24
  d8:	31 f0       	breq	.+12     	; 0xe6 <USART_SendString+0x18>
  da:	21 96       	adiw	r28, 0x01	; 1
  dc:	0e 94 5f 00 	call	0xbe	; 0xbe <USART_TxChar>
  e0:	89 91       	ld	r24, Y+
  e2:	81 11       	cpse	r24, r1
  e4:	fb cf       	rjmp	.-10     	; 0xdc <USART_SendString+0xe>
  e6:	df 91       	pop	r29
  e8:	cf 91       	pop	r28
  ea:	08 95       	ret

000000ec <ADC_Init>:
  ec:	80 e4       	ldi	r24, 0x40	; 64
  ee:	80 93 7c 00 	sts	0x007C, r24	; 0x80007c <__TEXT_REGION_LENGTH__+0x7e007c>
  f2:	86 e8       	ldi	r24, 0x86	; 134
  f4:	80 93 7a 00 	sts	0x007A, r24	; 0x80007a <__TEXT_REGION_LENGTH__+0x7e007a>
  f8:	08 95       	ret

000000fa <ADC_Read>:
  fa:	ec e7       	ldi	r30, 0x7C	; 124
  fc:	f0 e0       	ldi	r31, 0x00	; 0
  fe:	90 81       	ld	r25, Z
 100:	98 7f       	andi	r25, 0xF8	; 248
 102:	87 70       	andi	r24, 0x07	; 7
 104:	89 2b       	or	r24, r25
 106:	80 83       	st	Z, r24
 108:	86 e0       	ldi	r24, 0x06	; 6
 10a:	8a 95       	dec	r24
 10c:	f1 f7       	brne	.-4      	; 0x10a <ADC_Read+0x10>
 10e:	00 c0       	rjmp	.+0      	; 0x110 <ADC_Read+0x16>
 110:	ea e7       	ldi	r30, 0x7A	; 122
 112:	f0 e0       	ldi	r31, 0x00	; 0
 114:	80 81       	ld	r24, Z
 116:	80 64       	ori	r24, 0x40	; 64
 118:	80 83       	st	Z, r24
 11a:	80 81       	ld	r24, Z
 11c:	86 fd       	sbrc	r24, 6
 11e:	fd cf       	rjmp	.-6      	; 0x11a <ADC_Read+0x20>
 120:	80 91 78 00 	lds	r24, 0x0078	; 0x800078 <__TEXT_REGION_LENGTH__+0x7e0078>
 124:	90 91 79 00 	lds	r25, 0x0079	; 0x800079 <__TEXT_REGION_LENGTH__+0x7e0079>
 128:	08 95       	ret

0000012a <TWI_Init>:
 12a:	10 92 b9 00 	sts	0x00B9, r1	; 0x8000b9 <__TEXT_REGION_LENGTH__+0x7e00b9>
 12e:	8c e0       	ldi	r24, 0x0C	; 12
 130:	80 93 b8 00 	sts	0x00B8, r24	; 0x8000b8 <__TEXT_REGION_LENGTH__+0x7e00b8>
 134:	08 95       	ret

00000136 <TWI_Start>:
 136:	84 ea       	ldi	r24, 0xA4	; 164
 138:	80 93 bc 00 	sts	0x00BC, r24	; 0x8000bc <__TEXT_REGION_LENGTH__+0x7e00bc>
 13c:	ec eb       	ldi	r30, 0xBC	; 188
 13e:	f0 e0       	ldi	r31, 0x00	; 0
 140:	80 81       	ld	r24, Z
 142:	88 23       	and	r24, r24
 144:	ec f7       	brge	.-6      	; 0x140 <TWI_Start+0xa>
 146:	08 95       	ret

00000148 <TWI_Stop>:
 148:	84 e9       	ldi	r24, 0x94	; 148
 14a:	80 93 bc 00 	sts	0x00BC, r24	; 0x8000bc <__TEXT_REGION_LENGTH__+0x7e00bc>
 14e:	8d e0       	ldi	r24, 0x0D	; 13
 150:	8a 95       	dec	r24
 152:	f1 f7       	brne	.-4      	; 0x150 <TWI_Stop+0x8>
 154:	00 00       	nop
 156:	08 95       	ret

00000158 <TWI_WriteByte>:
 158:	80 93 bb 00 	sts	0x00BB, r24	; 0x8000bb <__TEXT_REGION_LENGTH__+0x7e00bb>
 15c:	84 e8       	ldi	r24, 0x84	; 132
 15e:	80 93 bc 00 	sts	0x00BC, r24	; 0x8000bc <__TEXT_REGION_LENGTH__+0x7e00bc>
 162:	ec eb       	ldi	r30, 0xBC	; 188
 164:	f0 e0       	ldi	r31, 0x00	; 0
 166:	80 81       	ld	r24, Z
 168:	88 23       	and	r24, r24
 16a:	ec f7       	brge	.-6      	; 0x166 <TWI_WriteByte+0xe>
 16c:	08 95       	ret

0000016e <LCD_I2C_WriteNibble>:
 16e:	ef 92       	push	r14
 170:	ff 92       	push	r15
 172:	0f 93       	push	r16
 174:	1f 93       	push	r17
 176:	cf 93       	push	r28
 178:	df 93       	push	r29
 17a:	00 d0       	rcall	.+0      	; 0x17c <LCD_I2C_WriteNibble+0xe>
 17c:	00 d0       	rcall	.+0      	; 0x17e <LCD_I2C_WriteNibble+0x10>
 17e:	cd b7       	in	r28, 0x3d	; 61
 180:	de b7       	in	r29, 0x3e	; 62
 182:	21 e0       	ldi	r18, 0x01	; 1
 184:	61 11       	cpse	r22, r1
 186:	01 c0       	rjmp	.+2      	; 0x18a <LCD_I2C_WriteNibble+0x1c>
 188:	20 e0       	ldi	r18, 0x00	; 0
 18a:	98 2f       	mov	r25, r24
 18c:	90 7f       	andi	r25, 0xF0	; 240
 18e:	92 2b       	or	r25, r18
 190:	39 2f       	mov	r19, r25
 192:	3c 60       	ori	r19, 0x0C	; 12
 194:	39 83       	std	Y+1, r19	; 0x01
 196:	98 60       	ori	r25, 0x08	; 8
 198:	9a 83       	std	Y+2, r25	; 0x02
 19a:	30 e1       	ldi	r19, 0x10	; 16
 19c:	83 9f       	mul	r24, r19
 19e:	c0 01       	movw	r24, r0
 1a0:	11 24       	eor	r1, r1
 1a2:	82 2b       	or	r24, r18
 1a4:	98 2f       	mov	r25, r24
 1a6:	9c 60       	ori	r25, 0x0C	; 12
 1a8:	9b 83       	std	Y+3, r25	; 0x03
 1aa:	88 60       	ori	r24, 0x08	; 8
 1ac:	8c 83       	std	Y+4, r24	; 0x04
 1ae:	0e 94 9b 00 	call	0x136	; 0x136 <TWI_Start>
 1b2:	80 91 00 01 	lds	r24, 0x0100	; 0x800100 <LCD_ADDR>
 1b6:	88 0f       	add	r24, r24
 1b8:	0e 94 ac 00 	call	0x158	; 0x158 <TWI_WriteByte>
 1bc:	8e 01       	movw	r16, r28
 1be:	0f 5f       	subi	r16, 0xFF	; 255
 1c0:	1f 4f       	sbci	r17, 0xFF	; 255
 1c2:	7e 01       	movw	r14, r28
 1c4:	85 e0       	ldi	r24, 0x05	; 5
 1c6:	e8 0e       	add	r14, r24
 1c8:	f1 1c       	adc	r15, r1
 1ca:	f8 01       	movw	r30, r16
 1cc:	81 91       	ld	r24, Z+
 1ce:	8f 01       	movw	r16, r30
 1d0:	0e 94 ac 00 	call	0x158	; 0x158 <TWI_WriteByte>
 1d4:	0e 15       	cp	r16, r14
 1d6:	1f 05       	cpc	r17, r15
 1d8:	c1 f7       	brne	.-16     	; 0x1ca <LCD_I2C_WriteNibble+0x5c>
 1da:	0e 94 a4 00 	call	0x148	; 0x148 <TWI_Stop>
 1de:	0f 90       	pop	r0
 1e0:	0f 90       	pop	r0
 1e2:	0f 90       	pop	r0
 1e4:	0f 90       	pop	r0
 1e6:	df 91       	pop	r29
 1e8:	cf 91       	pop	r28
 1ea:	1f 91       	pop	r17
 1ec:	0f 91       	pop	r16
 1ee:	ff 90       	pop	r15
 1f0:	ef 90       	pop	r14
 1f2:	08 95       	ret

000001f4 <LCD_I2C_Cmd>:
 1f4:	60 e0       	ldi	r22, 0x00	; 0
 1f6:	0e 94 b7 00 	call	0x16e	; 0x16e <LCD_I2C_WriteNibble>
 1fa:	8f ec       	ldi	r24, 0xCF	; 207
 1fc:	97 e0       	ldi	r25, 0x07	; 7
 1fe:	01 97       	sbiw	r24, 0x01	; 1
 200:	f1 f7       	brne	.-4      	; 0x1fe <LCD_I2C_Cmd+0xa>
 202:	00 c0       	rjmp	.+0      	; 0x204 <LCD_I2C_Cmd+0x10>
 204:	00 00       	nop
 206:	08 95       	ret

00000208 <LCD_I2C_Char>:
 208:	61 e0       	ldi	r22, 0x01	; 1
 20a:	0e 94 b7 00 	call	0x16e	; 0x16e <LCD_I2C_WriteNibble>
 20e:	82 e4       	ldi	r24, 0x42	; 66
 210:	8a 95       	dec	r24
 212:	f1 f7       	brne	.-4      	; 0x210 <LCD_I2C_Char+0x8>
 214:	00 c0       	rjmp	.+0      	; 0x216 <LCD_I2C_Char+0xe>
 216:	08 95       	ret

00000218 <LCD_I2C_Init>:
 218:	8f e4       	ldi	r24, 0x4F	; 79
 21a:	93 ec       	ldi	r25, 0xC3	; 195
 21c:	01 97       	sbiw	r24, 0x01	; 1
 21e:	f1 f7       	brne	.-4      	; 0x21c <LCD_I2C_Init+0x4>
 220:	00 c0       	rjmp	.+0      	; 0x222 <LCD_I2C_Init+0xa>
 222:	00 00       	nop
 224:	83 e3       	ldi	r24, 0x33	; 51
 226:	0e 94 fa 00 	call	0x1f4	; 0x1f4 <LCD_I2C_Cmd>
 22a:	82 e3       	ldi	r24, 0x32	; 50
 22c:	0e 94 fa 00 	call	0x1f4	; 0x1f4 <LCD_I2C_Cmd>
 230:	88 e2       	ldi	r24, 0x28	; 40
 232:	0e 94 fa 00 	call	0x1f4	; 0x1f4 <LCD_I2C_Cmd>
 236:	8c e0       	ldi	r24, 0x0C	; 12
 238:	0e 94 fa 00 	call	0x1f4	; 0x1f4 <LCD_I2C_Cmd>
 23c:	86 e0       	ldi	r24, 0x06	; 6
 23e:	0e 94 fa 00 	call	0x1f4	; 0x1f4 <LCD_I2C_Cmd>
 242:	81 e0       	ldi	r24, 0x01	; 1
 244:	0e 94 fa 00 	call	0x1f4	; 0x1f4 <LCD_I2C_Cmd>
 248:	8f ec       	ldi	r24, 0xCF	; 207
 24a:	97 e0       	ldi	r25, 0x07	; 7
 24c:	01 97       	sbiw	r24, 0x01	; 1
 24e:	f1 f7       	brne	.-4      	; 0x24c <LCD_I2C_Init+0x34>
 250:	00 c0       	rjmp	.+0      	; 0x252 <LCD_I2C_Init+0x3a>
 252:	00 00       	nop
 254:	08 95       	ret

00000256 <LCD_I2C_Clear>:
 256:	81 e0       	ldi	r24, 0x01	; 1
 258:	0e 94 fa 00 	call	0x1f4	; 0x1f4 <LCD_I2C_Cmd>
 25c:	8f ec       	ldi	r24, 0xCF	; 207
 25e:	97 e0       	ldi	r25, 0x07	; 7
 260:	01 97       	sbiw	r24, 0x01	; 1
 262:	f1 f7       	brne	.-4      	; 0x260 <LCD_I2C_Clear+0xa>
 264:	00 c0       	rjmp	.+0      	; 0x266 <LCD_I2C_Clear+0x10>
 266:	00 00       	nop
 268:	08 95       	ret

0000026a <LCD_I2C_String>:
}

void LCD_I2C_String(const char *s) {
 26a:	cf 93       	push	r28
 26c:	df 93       	push	r29
 26e:	ec 01       	movw	r28, r24
    while (*s) LCD_I2C_Char(*s++);
 270:	88 81       	ld	r24, Y
 272:	88 23       	and	r24, r24
 274:	31 f0       	breq	.+12     	; 0x282 <LCD_I2C_String+0x18>
 276:	21 96       	adiw	r28, 0x01	; 1
 278:	0e 94 04 01 	call	0x208	; 0x208 <LCD_I2C_Char>
 27c:	89 91       	ld	r24, Y+
 27e:	81 11       	cpse	r24, r1
 280:	fb cf       	rjmp	.-10     	; 0x278 <LCD_I2C_String+0xe>
}
 282:	df 91       	pop	r29
 284:	cf 91       	pop	r28
 286:	08 95       	ret

00000288 <i2c_scan_and_set_address>:

/*** Simple I2C scanner (prints results via USART) ***/
void i2c_scan_and_set_address(void) {
 288:	2f 92       	push	r2
 28a:	3f 92       	push	r3
 28c:	4f 92       	push	r4
 28e:	5f 92       	push	r5
 290:	6f 92       	push	r6
 292:	7f 92       	push	r7
 294:	8f 92       	push	r8
 296:	9f 92       	push	r9
 298:	af 92       	push	r10
 29a:	bf 92       	push	r11
 29c:	cf 92       	push	r12
 29e:	df 92       	push	r13
 2a0:	ef 92       	push	r14
 2a2:	ff 92       	push	r15
 2a4:	0f 93       	push	r16
 2a6:	1f 93       	push	r17
 2a8:	cf 93       	push	r28
 2aa:	df 93       	push	r29
 2ac:	cd b7       	in	r28, 0x3d	; 61
 2ae:	de b7       	in	r29, 0x3e	; 62
 2b0:	a8 97       	sbiw	r28, 0x28	; 40
 2b2:	0f b6       	in	r0, 0x3f	; 63
 2b4:	f8 94       	cli
 2b6:	de bf       	out	0x3e, r29	; 62
 2b8:	0f be       	out	0x3f, r0	; 63
 2ba:	cd bf       	out	0x3d, r28	; 61
    // Try to find known addresses 0x27, 0x3F — but do a quick scan
    char buf[40];
    USART_SendString("I2C scan start...\r\n");
 2bc:	81 e0       	ldi	r24, 0x01	; 1
 2be:	91 e0       	ldi	r25, 0x01	; 1
 2c0:	0e 94 67 00 	call	0xce	; 0xce <USART_SendString>
 2c4:	ee 24       	eor	r14, r14
 2c6:	e3 94       	inc	r14
 2c8:	f1 2c       	mov	r15, r1
    for (uint8_t addr = 1; addr < 127; addr++) {
        TWI_Start();
        TWDR = (addr<<1) | 0; // write
 2ca:	0f 2e       	mov	r0, r31
 2cc:	fb eb       	ldi	r31, 0xBB	; 187
 2ce:	af 2e       	mov	r10, r31
 2d0:	b1 2c       	mov	r11, r1
 2d2:	f0 2d       	mov	r31, r0
        TWCR = (1<<TWINT)|(1<<TWEN);
 2d4:	0c eb       	ldi	r16, 0xBC	; 188
 2d6:	10 e0       	ldi	r17, 0x00	; 0
 2d8:	0f 2e       	mov	r0, r31
 2da:	f4 e8       	ldi	r31, 0x84	; 132
 2dc:	3f 2e       	mov	r3, r31
 2de:	f0 2d       	mov	r31, r0
        while (!(TWCR & (1<<TWINT)));
        uint8_t status = TWSR & 0xF8;
 2e0:	0f 2e       	mov	r0, r31
 2e2:	f9 eb       	ldi	r31, 0xB9	; 185
 2e4:	cf 2e       	mov	r12, r31
 2e6:	d1 2c       	mov	r13, r1
 2e8:	f0 2d       	mov	r31, r0
        TWI_Stop();
        // 0x18 (SLA+W + ACK) / implementation may vary; easiest is to check if not NACK
        // The TWSR value for SLA+W transmitted and ACK received is 0x18.
        if (status == 0x18) {
            sprintf(buf, "Found I2C device at 0x%02X\r\n", addr);
 2ea:	0f 2e       	mov	r0, r31
 2ec:	f5 e1       	ldi	r31, 0x15	; 21
 2ee:	6f 2e       	mov	r6, r31
 2f0:	f1 e0       	ldi	r31, 0x01	; 1
 2f2:	7f 2e       	mov	r7, r31
 2f4:	f0 2d       	mov	r31, r0
 2f6:	ce 01       	movw	r24, r28
 2f8:	01 96       	adiw	r24, 0x01	; 1
 2fa:	4c 01       	movw	r8, r24
 2fc:	4e 2c       	mov	r4, r14
void i2c_scan_and_set_address(void) {
    // Try to find known addresses 0x27, 0x3F — but do a quick scan
    char buf[40];
    USART_SendString("I2C scan start...\r\n");
    for (uint8_t addr = 1; addr < 127; addr++) {
        TWI_Start();
 2fe:	0e 94 9b 00 	call	0x136	; 0x136 <TWI_Start>
        TWDR = (addr<<1) | 0; // write
 302:	8e 2d       	mov	r24, r14
 304:	88 0f       	add	r24, r24
 306:	f5 01       	movw	r30, r10
 308:	80 83       	st	Z, r24
        TWCR = (1<<TWINT)|(1<<TWEN);
 30a:	f8 01       	movw	r30, r16
 30c:	30 82       	st	Z, r3
        while (!(TWCR & (1<<TWINT)));
 30e:	f8 01       	movw	r30, r16
 310:	80 81       	ld	r24, Z
 312:	88 23       	and	r24, r24
 314:	e4 f7       	brge	.-8      	; 0x30e <i2c_scan_and_set_address+0x86>
        uint8_t status = TWSR & 0xF8;
 316:	f6 01       	movw	r30, r12
 318:	50 80       	ld	r5, Z
        TWI_Stop();
 31a:	0e 94 a4 00 	call	0x148	; 0x148 <TWI_Stop>
        // 0x18 (SLA+W + ACK) / implementation may vary; easiest is to check if not NACK
        // The TWSR value for SLA+W transmitted and ACK received is 0x18.
        if (status == 0x18) {
 31e:	85 2d       	mov	r24, r5
 320:	88 7f       	andi	r24, 0xF8	; 248
 322:	88 31       	cpi	r24, 0x18	; 24
 324:	91 f5       	brne	.+100    	; 0x38a <i2c_scan_and_set_address+0x102>
            sprintf(buf, "Found I2C device at 0x%02X\r\n", addr);
 326:	5e 2c       	mov	r5, r14
 328:	2f 2c       	mov	r2, r15
 32a:	ff 92       	push	r15
 32c:	ef 92       	push	r14
 32e:	7f 92       	push	r7
 330:	6f 92       	push	r6
 332:	9f 92       	push	r9
 334:	8f 92       	push	r8
 336:	0e 94 65 03 	call	0x6ca	; 0x6ca <sprintf>
            USART_SendString(buf);
 33a:	c4 01       	movw	r24, r8
 33c:	0e 94 67 00 	call	0xce	; 0xce <USART_SendString>
            // If it's a common LCD address, pick it
            if (addr == 0x27 || addr == 0x3F) {
 340:	0f 90       	pop	r0
 342:	0f 90       	pop	r0
 344:	0f 90       	pop	r0
 346:	0f 90       	pop	r0
 348:	0f 90       	pop	r0
 34a:	0f 90       	pop	r0
 34c:	f7 e2       	ldi	r31, 0x27	; 39
 34e:	4f 16       	cp	r4, r31
 350:	19 f0       	breq	.+6      	; 0x358 <i2c_scan_and_set_address+0xd0>
 352:	8f e3       	ldi	r24, 0x3F	; 63
 354:	48 12       	cpse	r4, r24
 356:	19 c0       	rjmp	.+50     	; 0x38a <i2c_scan_and_set_address+0x102>
                LCD_ADDR = addr;
 358:	40 92 00 01 	sts	0x0100, r4	; 0x800100 <LCD_ADDR>
                sprintf(buf, "Using LCD address 0x%02X\r\n", LCD_ADDR);
 35c:	2f 92       	push	r2
 35e:	5f 92       	push	r5
 360:	82 e3       	ldi	r24, 0x32	; 50
 362:	91 e0       	ldi	r25, 0x01	; 1
 364:	9f 93       	push	r25
 366:	8f 93       	push	r24
 368:	8e 01       	movw	r16, r28
 36a:	0f 5f       	subi	r16, 0xFF	; 255
 36c:	1f 4f       	sbci	r17, 0xFF	; 255
 36e:	1f 93       	push	r17
 370:	0f 93       	push	r16
 372:	0e 94 65 03 	call	0x6ca	; 0x6ca <sprintf>
                USART_SendString(buf);
 376:	c8 01       	movw	r24, r16
 378:	0e 94 67 00 	call	0xce	; 0xce <USART_SendString>
                return;
 37c:	0f 90       	pop	r0
 37e:	0f 90       	pop	r0
 380:	0f 90       	pop	r0
 382:	0f 90       	pop	r0
 384:	0f 90       	pop	r0
 386:	0f 90       	pop	r0
 388:	20 c0       	rjmp	.+64     	; 0x3ca <i2c_scan_and_set_address+0x142>
 38a:	9f ef       	ldi	r25, 0xFF	; 255
 38c:	e9 1a       	sub	r14, r25
 38e:	f9 0a       	sbc	r15, r25
/*** Simple I2C scanner (prints results via USART) ***/
void i2c_scan_and_set_address(void) {
    // Try to find known addresses 0x27, 0x3F — but do a quick scan
    char buf[40];
    USART_SendString("I2C scan start...\r\n");
    for (uint8_t addr = 1; addr < 127; addr++) {
 390:	ef e7       	ldi	r30, 0x7F	; 127
 392:	ee 16       	cp	r14, r30
 394:	f1 04       	cpc	r15, r1
 396:	09 f0       	breq	.+2      	; 0x39a <i2c_scan_and_set_address+0x112>
 398:	b1 cf       	rjmp	.-158    	; 0x2fc <i2c_scan_and_set_address+0x74>
                return;
            }
        }
    }
    // fallback if nothing explicit found: keep default 0x27 but report
    sprintf(buf, "Scan done. Using LCD address 0x%02X (default)\r\n", LCD_ADDR);
 39a:	80 91 00 01 	lds	r24, 0x0100	; 0x800100 <LCD_ADDR>
 39e:	1f 92       	push	r1
 3a0:	8f 93       	push	r24
 3a2:	8d e4       	ldi	r24, 0x4D	; 77
 3a4:	91 e0       	ldi	r25, 0x01	; 1
 3a6:	9f 93       	push	r25
 3a8:	8f 93       	push	r24
 3aa:	8e 01       	movw	r16, r28
 3ac:	0f 5f       	subi	r16, 0xFF	; 255
 3ae:	1f 4f       	sbci	r17, 0xFF	; 255
 3b0:	1f 93       	push	r17
 3b2:	0f 93       	push	r16
 3b4:	0e 94 65 03 	call	0x6ca	; 0x6ca <sprintf>
    USART_SendString(buf);
 3b8:	c8 01       	movw	r24, r16
 3ba:	0e 94 67 00 	call	0xce	; 0xce <USART_SendString>
 3be:	0f 90       	pop	r0
 3c0:	0f 90       	pop	r0
 3c2:	0f 90       	pop	r0
 3c4:	0f 90       	pop	r0
 3c6:	0f 90       	pop	r0
 3c8:	0f 90       	pop	r0
}
 3ca:	a8 96       	adiw	r28, 0x28	; 40
 3cc:	0f b6       	in	r0, 0x3f	; 63
 3ce:	f8 94       	cli
 3d0:	de bf       	out	0x3e, r29	; 62
 3d2:	0f be       	out	0x3f, r0	; 63
 3d4:	cd bf       	out	0x3d, r28	; 61
 3d6:	df 91       	pop	r29
 3d8:	cf 91       	pop	r28
 3da:	1f 91       	pop	r17
 3dc:	0f 91       	pop	r16
 3de:	ff 90       	pop	r15
 3e0:	ef 90       	pop	r14
 3e2:	df 90       	pop	r13
 3e4:	cf 90       	pop	r12
 3e6:	bf 90       	pop	r11
 3e8:	af 90       	pop	r10
 3ea:	9f 90       	pop	r9
 3ec:	8f 90       	pop	r8
 3ee:	7f 90       	pop	r7
 3f0:	6f 90       	pop	r6
 3f2:	5f 90       	pop	r5
 3f4:	4f 90       	pop	r4
 3f6:	3f 90       	pop	r3
 3f8:	2f 90       	pop	r2
 3fa:	08 95       	ret

000003fc <__vector_1>:

/*** Interrupt (tilt) ***/
ISR(INT0_vect) {
 3fc:	1f 92       	push	r1
 3fe:	0f 92       	push	r0
 400:	0f b6       	in	r0, 0x3f	; 63
 402:	0f 92       	push	r0
 404:	11 24       	eor	r1, r1
 406:	8f 93       	push	r24
    // simple counter increment: count any change
    tiltCount++;
 408:	80 91 07 02 	lds	r24, 0x0207	; 0x800207 <tiltCount>
 40c:	8f 5f       	subi	r24, 0xFF	; 255
 40e:	80 93 07 02 	sts	0x0207, r24	; 0x800207 <tiltCount>
}
 412:	8f 91       	pop	r24
 414:	0f 90       	pop	r0
 416:	0f be       	out	0x3f, r0	; 63
 418:	0f 90       	pop	r0
 41a:	1f 90       	pop	r1
 41c:	18 95       	reti

0000041e <setRelay>:

/*** Relay control (assume active HIGH by default)
    If your relay board is active LOW, invert the logic here.
*/
void setRelay(uint8_t state) {
    if (state) PORTD |= (1<<RELAY_PIN);
 41e:	88 23       	and	r24, r24
 420:	11 f0       	breq	.+4      	; 0x426 <setRelay+0x8>
 422:	5f 9a       	sbi	0x0b, 7	; 11
 424:	01 c0       	rjmp	.+2      	; 0x428 <setRelay+0xa>
    else PORTD &= ~(1<<RELAY_PIN);
 426:	5f 98       	cbi	0x0b, 7	; 11
    pumpOn = state;
 428:	80 93 06 02 	sts	0x0206, r24	; 0x800206 <__data_end>
 42c:	08 95       	ret

0000042e <main>:
}

/*** Main ***/
int main(void) {
 42e:	cf 93       	push	r28
 430:	df 93       	push	r29
 432:	cd b7       	in	r28, 0x3d	; 61
 434:	de b7       	in	r29, 0x3e	; 62
 436:	c0 54       	subi	r28, 0x40	; 64
 438:	d1 09       	sbc	r29, r1
 43a:	0f b6       	in	r0, 0x3f	; 63
 43c:	f8 94       	cli
 43e:	de bf       	out	0x3e, r29	; 62
 440:	0f be       	out	0x3f, r0	; 63
 442:	cd bf       	out	0x3d, r28	; 61
    USART_Init();
 444:	0e 94 53 00 	call	0xa6	; 0xa6 <USART_Init>
	#else
		//round up by default
		__ticks_dc = (uint32_t)(ceil(fabs(__tmp)));
	#endif

	__builtin_avr_delay_cycles(__ticks_dc);
 448:	87 ea       	ldi	r24, 0xA7	; 167
 44a:	91 e6       	ldi	r25, 0x61	; 97
 44c:	01 97       	sbiw	r24, 0x01	; 1
 44e:	f1 f7       	brne	.-4      	; 0x44c <main+0x1e>
 450:	00 c0       	rjmp	.+0      	; 0x452 <main+0x24>
 452:	00 00       	nop
    _delay_ms(25);
    USART_SendString("Smart Plant Booting...\r\n");
 454:	8d e7       	ldi	r24, 0x7D	; 125
 456:	91 e0       	ldi	r25, 0x01	; 1
 458:	0e 94 67 00 	call	0xce	; 0xce <USART_SendString>

    ADC_Init();
 45c:	0e 94 76 00 	call	0xec	; 0xec <ADC_Init>
    TWI_Init();
 460:	0e 94 95 00 	call	0x12a	; 0x12a <TWI_Init>

    // Configure ports
    DDRB |= (1<<LED_YELLOW)|(1<<LED_RED)|(1<<LED_GREEN); // outputs for LEDs
 464:	84 b1       	in	r24, 0x04	; 4
 466:	87 60       	ori	r24, 0x07	; 7
 468:	84 b9       	out	0x04, r24	; 4
    DDRD |= (1<<RELAY_PIN); // relay control output
 46a:	57 9a       	sbi	0x0a, 7	; 10
    // Make sure LEDs/relay start OFF
    PORTB &= ~((1<<LED_YELLOW)|(1<<LED_RED)|(1<<LED_GREEN));
 46c:	85 b1       	in	r24, 0x05	; 5
 46e:	88 7f       	andi	r24, 0xF8	; 248
 470:	85 b9       	out	0x05, r24	; 5
    PORTD &= ~(1<<RELAY_PIN);
 472:	5f 98       	cbi	0x0b, 7	; 11

    // Tilt switch pin as input with pull-up
    DDRD &= ~(1<<TILT_PIN);
 474:	52 98       	cbi	0x0a, 2	; 10
    PORTD |= (1<<TILT_PIN); // enable pull-up
 476:	5a 9a       	sbi	0x0b, 2	; 11

    // Enable INT0 on any logical change
    EICRA = (1<<ISC00); // ISC01=0, ISC00=1 => any logical change
 478:	81 e0       	ldi	r24, 0x01	; 1
 47a:	80 93 69 00 	sts	0x0069, r24	; 0x800069 <__TEXT_REGION_LENGTH__+0x7e0069>
    EIMSK = (1<<INT0);
 47e:	8d bb       	out	0x1d, r24	; 29

    sei();
 480:	78 94       	sei

    // Try to detect LCD address (optional but helpful)
    i2c_scan_and_set_address();
 482:	0e 94 44 01 	call	0x288	; 0x288 <i2c_scan_and_set_address>
 486:	8f e4       	ldi	r24, 0x4F	; 79
 488:	93 ec       	ldi	r25, 0xC3	; 195
 48a:	01 97       	sbiw	r24, 0x01	; 1
 48c:	f1 f7       	brne	.-4      	; 0x48a <main+0x5c>
 48e:	00 c0       	rjmp	.+0      	; 0x490 <main+0x62>
 490:	00 00       	nop
    _delay_ms(50);

    // Initialize LCD
    LCD_I2C_Init();
 492:	0e 94 0c 01 	call	0x218	; 0x218 <LCD_I2C_Init>
    LCD_I2C_Clear();
 496:	0e 94 2b 01 	call	0x256	; 0x256 <LCD_I2C_Clear>
    _delay_ms(2);
}

void LCD_I2C_SetCursor(uint8_t row, uint8_t col) {
    uint8_t pos = (row == 0) ? (0x80 + col) : (0xC0 + col);
    LCD_I2C_Cmd(pos);
 49a:	80 e8       	ldi	r24, 0x80	; 128
 49c:	0e 94 fa 00 	call	0x1f4	; 0x1f4 <LCD_I2C_Cmd>

    // Initialize LCD
    LCD_I2C_Init();
    LCD_I2C_Clear();
    LCD_I2C_SetCursor(0,0);
    LCD_I2C_String("Smart Plant Init");
 4a0:	86 e9       	ldi	r24, 0x96	; 150
 4a2:	91 e0       	ldi	r25, 0x01	; 1
 4a4:	0e 94 35 01 	call	0x26a	; 0x26a <LCD_I2C_String>
 4a8:	9f ef       	ldi	r25, 0xFF	; 255
 4aa:	24 e3       	ldi	r18, 0x34	; 52
 4ac:	8c e0       	ldi	r24, 0x0C	; 12
 4ae:	91 50       	subi	r25, 0x01	; 1
 4b0:	20 40       	sbci	r18, 0x00	; 0
 4b2:	80 40       	sbci	r24, 0x00	; 0
 4b4:	e1 f7       	brne	.-8      	; 0x4ae <main+0x80>
 4b6:	00 c0       	rjmp	.+0      	; 0x4b8 <main+0x8a>
 4b8:	00 00       	nop
    _delay_ms(1000);
    LCD_I2C_Clear();
 4ba:	0e 94 2b 01 	call	0x256	; 0x256 <LCD_I2C_Clear>

    while (1) {
        // Read ADC (soil)
        raw = ADC_Read(SOIL_ADC_CHANNEL);
        // compute percentage without float:
        percent = (uint8_t)((raw * 100UL) / 1023UL);
 4be:	0f 2e       	mov	r0, r31
 4c0:	44 24       	eor	r4, r4
 4c2:	4a 94       	dec	r4
 4c4:	f3 e0       	ldi	r31, 0x03	; 3
 4c6:	5f 2e       	mov	r5, r31
 4c8:	61 2c       	mov	r6, r1
 4ca:	71 2c       	mov	r7, r1
 4cc:	f0 2d       	mov	r31, r0

        // Debug print
        sprintf(dbgbuf, "Soil=%u (%u%%)\r\n", raw, percent);
 4ce:	0f 2e       	mov	r0, r31
 4d0:	f7 ea       	ldi	r31, 0xA7	; 167
 4d2:	8f 2e       	mov	r8, r31
 4d4:	f1 e0       	ldi	r31, 0x01	; 1
 4d6:	9f 2e       	mov	r9, r31
 4d8:	f0 2d       	mov	r31, r0
 4da:	ce 01       	movw	r24, r28
 4dc:	01 96       	adiw	r24, 0x01	; 1
 4de:	5c 01       	movw	r10, r24
    uint16_t raw;
    uint8_t percent;

    while (1) {
        // Read ADC (soil)
        raw = ADC_Read(SOIL_ADC_CHANNEL);
 4e0:	80 e0       	ldi	r24, 0x00	; 0
 4e2:	0e 94 7d 00 	call	0xfa	; 0xfa <ADC_Read>
 4e6:	e8 2e       	mov	r14, r24
 4e8:	d9 2e       	mov	r13, r25
        // compute percentage without float:
        percent = (uint8_t)((raw * 100UL) / 1023UL);
 4ea:	28 2f       	mov	r18, r24
 4ec:	39 2f       	mov	r19, r25
 4ee:	a4 e6       	ldi	r26, 0x64	; 100
 4f0:	b0 e0       	ldi	r27, 0x00	; 0
 4f2:	0e 94 31 03 	call	0x662	; 0x662 <__umulhisi3>
 4f6:	a3 01       	movw	r20, r6
 4f8:	92 01       	movw	r18, r4
 4fa:	0e 94 0f 03 	call	0x61e	; 0x61e <__udivmodsi4>
 4fe:	f2 2e       	mov	r15, r18

        // Debug print
        sprintf(dbgbuf, "Soil=%u (%u%%)\r\n", raw, percent);
 500:	02 2f       	mov	r16, r18
 502:	10 e0       	ldi	r17, 0x00	; 0
 504:	1f 92       	push	r1
 506:	2f 93       	push	r18
 508:	df 92       	push	r13
 50a:	ef 92       	push	r14
 50c:	9f 92       	push	r9
 50e:	8f 92       	push	r8
 510:	bf 92       	push	r11
 512:	af 92       	push	r10
 514:	0e 94 65 03 	call	0x6ca	; 0x6ca <sprintf>
        USART_SendString(dbgbuf);
 518:	c5 01       	movw	r24, r10
 51a:	0e 94 67 00 	call	0xce	; 0xce <USART_SendString>
    _delay_ms(2);
}

void LCD_I2C_SetCursor(uint8_t row, uint8_t col) {
    uint8_t pos = (row == 0) ? (0x80 + col) : (0xC0 + col);
    LCD_I2C_Cmd(pos);
 51e:	80 e8       	ldi	r24, 0x80	; 128
 520:	0e 94 fa 00 	call	0x1f4	; 0x1f4 <LCD_I2C_Cmd>
        sprintf(dbgbuf, "Soil=%u (%u%%)\r\n", raw, percent);
        USART_SendString(dbgbuf);

        // Display on LCD (top line)
        LCD_I2C_SetCursor(0,0);
        LCD_I2C_String("Soil:");
 524:	88 eb       	ldi	r24, 0xB8	; 184
 526:	91 e0       	ldi	r25, 0x01	; 1
 528:	0e 94 35 01 	call	0x26a	; 0x26a <LCD_I2C_String>
    } else if (__radix < 2 || __radix > 36) {
	*__s = 0;
	return __s;
    } else {
	extern char *__itoa_ncheck (int, char *, unsigned char);
	return __itoa_ncheck (__val, __s, __radix);
 52c:	4a e0       	ldi	r20, 0x0A	; 10
 52e:	b5 01       	movw	r22, r10
 530:	c8 01       	movw	r24, r16
 532:	0e 94 40 03 	call	0x680	; 0x680 <__itoa_ncheck>
        // print percentage right after
        itoa(percent, dbgbuf, 10);
        LCD_I2C_String(dbgbuf);
 536:	c5 01       	movw	r24, r10
 538:	0e 94 35 01 	call	0x26a	; 0x26a <LCD_I2C_String>
        LCD_I2C_String("%   "); // padding to erase leftover chars
 53c:	8e eb       	ldi	r24, 0xBE	; 190
 53e:	91 e0       	ldi	r25, 0x01	; 1
 540:	0e 94 35 01 	call	0x26a	; 0x26a <LCD_I2C_String>

        // Logic
        if (percent <= ALERT_THRESHOLD) {
 544:	0f b6       	in	r0, 0x3f	; 63
 546:	f8 94       	cli
 548:	de bf       	out	0x3e, r29	; 62
 54a:	0f be       	out	0x3f, r0	; 63
 54c:	cd bf       	out	0x3d, r28	; 61
 54e:	94 e0       	ldi	r25, 0x04	; 4
 550:	9f 15       	cp	r25, r15
 552:	70 f0       	brcs	.+28     	; 0x570 <main+0x142>
            // Critical: water now
            PORTB |= (1<<LED_RED);
 554:	29 9a       	sbi	0x05, 1	; 5
            PORTB &= ~((1<<LED_YELLOW));
 556:	28 98       	cbi	0x05, 0	; 5
            setRelay(1); // pump on
 558:	81 e0       	ldi	r24, 0x01	; 1
 55a:	0e 94 0f 02 	call	0x41e	; 0x41e <setRelay>
            PORTB |= (1<<LED_GREEN); // indicate pump running
 55e:	2a 9a       	sbi	0x05, 2	; 5
    _delay_ms(2);
}

void LCD_I2C_SetCursor(uint8_t row, uint8_t col) {
    uint8_t pos = (row == 0) ? (0x80 + col) : (0xC0 + col);
    LCD_I2C_Cmd(pos);
 560:	80 ec       	ldi	r24, 0xC0	; 192
 562:	0e 94 fa 00 	call	0x1f4	; 0x1f4 <LCD_I2C_Cmd>
            PORTB |= (1<<LED_RED);
            PORTB &= ~((1<<LED_YELLOW));
            setRelay(1); // pump on
            PORTB |= (1<<LED_GREEN); // indicate pump running
            LCD_I2C_SetCursor(1,0);
            LCD_I2C_String("WATER THE PLANT ");
 566:	83 ec       	ldi	r24, 0xC3	; 195
 568:	91 e0       	ldi	r25, 0x01	; 1
 56a:	0e 94 35 01 	call	0x26a	; 0x26a <LCD_I2C_String>
 56e:	33 c0       	rjmp	.+102    	; 0x5d6 <main+0x1a8>
        }
        else if (percent <= WARN_THRESHOLD) {
 570:	2a e0       	ldi	r18, 0x0A	; 10
 572:	2f 15       	cp	r18, r15
 574:	d8 f0       	brcs	.+54     	; 0x5ac <main+0x17e>
            // Warning
            PORTB |= (1<<LED_YELLOW);
 576:	28 9a       	sbi	0x05, 0	; 5
            PORTB &= ~(1<<LED_RED);
 578:	29 98       	cbi	0x05, 1	; 5
            // Turn pump off if we've gone above PUMP_OFF_THRESHOLD
            if (pumpOn && percent >= PUMP_OFF_THRESHOLD) {
 57a:	80 91 06 02 	lds	r24, 0x0206	; 0x800206 <__data_end>
 57e:	88 23       	and	r24, r24
 580:	41 f0       	breq	.+16     	; 0x592 <main+0x164>
 582:	83 e1       	ldi	r24, 0x13	; 19
 584:	8f 15       	cp	r24, r15
 586:	28 f4       	brcc	.+10     	; 0x592 <main+0x164>
                setRelay(0);
 588:	80 e0       	ldi	r24, 0x00	; 0
 58a:	0e 94 0f 02 	call	0x41e	; 0x41e <setRelay>
                PORTB &= ~(1<<LED_GREEN);
 58e:	2a 98       	cbi	0x05, 2	; 5
 590:	05 c0       	rjmp	.+10     	; 0x59c <main+0x16e>
            } else if (!pumpOn) {
 592:	80 91 06 02 	lds	r24, 0x0206	; 0x800206 <__data_end>
 596:	81 11       	cpse	r24, r1
 598:	01 c0       	rjmp	.+2      	; 0x59c <main+0x16e>
                PORTB &= ~(1<<LED_GREEN);
 59a:	2a 98       	cbi	0x05, 2	; 5
    _delay_ms(2);
}

void LCD_I2C_SetCursor(uint8_t row, uint8_t col) {
    uint8_t pos = (row == 0) ? (0x80 + col) : (0xC0 + col);
    LCD_I2C_Cmd(pos);
 59c:	80 ec       	ldi	r24, 0xC0	; 192
 59e:	0e 94 fa 00 	call	0x1f4	; 0x1f4 <LCD_I2C_Cmd>
                PORTB &= ~(1<<LED_GREEN);
            } else if (!pumpOn) {
                PORTB &= ~(1<<LED_GREEN);
            }
            LCD_I2C_SetCursor(1,0);
            LCD_I2C_String("Moisture is low ");
 5a2:	84 ed       	ldi	r24, 0xD4	; 212
 5a4:	91 e0       	ldi	r25, 0x01	; 1
 5a6:	0e 94 35 01 	call	0x26a	; 0x26a <LCD_I2C_String>
 5aa:	15 c0       	rjmp	.+42     	; 0x5d6 <main+0x1a8>
        }
        else {
            // OK
            PORTB &= ~((1<<LED_YELLOW)|(1<<LED_RED));
 5ac:	85 b1       	in	r24, 0x05	; 5
 5ae:	8c 7f       	andi	r24, 0xFC	; 252
 5b0:	85 b9       	out	0x05, r24	; 5
            if (pumpOn && percent >= PUMP_OFF_THRESHOLD) {
 5b2:	80 91 06 02 	lds	r24, 0x0206	; 0x800206 <__data_end>
 5b6:	88 23       	and	r24, r24
 5b8:	31 f0       	breq	.+12     	; 0x5c6 <main+0x198>
 5ba:	93 e1       	ldi	r25, 0x13	; 19
 5bc:	9f 15       	cp	r25, r15
 5be:	18 f4       	brcc	.+6      	; 0x5c6 <main+0x198>
                setRelay(0);
 5c0:	80 e0       	ldi	r24, 0x00	; 0
 5c2:	0e 94 0f 02 	call	0x41e	; 0x41e <setRelay>
            }
            PORTB &= ~(1<<LED_GREEN);
 5c6:	2a 98       	cbi	0x05, 2	; 5
    _delay_ms(2);
}

void LCD_I2C_SetCursor(uint8_t row, uint8_t col) {
    uint8_t pos = (row == 0) ? (0x80 + col) : (0xC0 + col);
    LCD_I2C_Cmd(pos);
 5c8:	80 ec       	ldi	r24, 0xC0	; 192
 5ca:	0e 94 fa 00 	call	0x1f4	; 0x1f4 <LCD_I2C_Cmd>
            if (pumpOn && percent >= PUMP_OFF_THRESHOLD) {
                setRelay(0);
            }
            PORTB &= ~(1<<LED_GREEN);
            LCD_I2C_SetCursor(1,0);
            LCD_I2C_String("Moisture OK     ");
 5ce:	85 ee       	ldi	r24, 0xE5	; 229
 5d0:	91 e0       	ldi	r25, 0x01	; 1
 5d2:	0e 94 35 01 	call	0x26a	; 0x26a <LCD_I2C_String>
        }

        // Tilt detection: if toggled >= 10 times show wind message
        if (tiltCount >= 10) {
 5d6:	80 91 07 02 	lds	r24, 0x0207	; 0x800207 <tiltCount>
 5da:	8a 30       	cpi	r24, 0x0A	; 10
 5dc:	b0 f0       	brcs	.+44     	; 0x60a <main+0x1dc>
            LCD_I2C_Clear();
 5de:	0e 94 2b 01 	call	0x256	; 0x256 <LCD_I2C_Clear>
    _delay_ms(2);
}

void LCD_I2C_SetCursor(uint8_t row, uint8_t col) {
    uint8_t pos = (row == 0) ? (0x80 + col) : (0xC0 + col);
    LCD_I2C_Cmd(pos);
 5e2:	80 e8       	ldi	r24, 0x80	; 128
 5e4:	0e 94 fa 00 	call	0x1f4	; 0x1f4 <LCD_I2C_Cmd>

        // Tilt detection: if toggled >= 10 times show wind message
        if (tiltCount >= 10) {
            LCD_I2C_Clear();
            LCD_I2C_SetCursor(0,0);
            LCD_I2C_String("Wind available ");
 5e8:	86 ef       	ldi	r24, 0xF6	; 246
 5ea:	91 e0       	ldi	r25, 0x01	; 1
 5ec:	0e 94 35 01 	call	0x26a	; 0x26a <LCD_I2C_String>
 5f0:	2f e7       	ldi	r18, 0x7F	; 127
 5f2:	84 e8       	ldi	r24, 0x84	; 132
 5f4:	9e e1       	ldi	r25, 0x1E	; 30
 5f6:	21 50       	subi	r18, 0x01	; 1
 5f8:	80 40       	sbci	r24, 0x00	; 0
 5fa:	90 40       	sbci	r25, 0x00	; 0
 5fc:	e1 f7       	brne	.-8      	; 0x5f6 <main+0x1c8>
 5fe:	00 c0       	rjmp	.+0      	; 0x600 <main+0x1d2>
 600:	00 00       	nop
            // optionally show moisture on 2nd line after small delay
            _delay_ms(2500);
            LCD_I2C_Clear();
 602:	0e 94 2b 01 	call	0x256	; 0x256 <LCD_I2C_Clear>
            tiltCount = 0;
 606:	10 92 07 02 	sts	0x0207, r1	; 0x800207 <tiltCount>
 60a:	2f ef       	ldi	r18, 0xFF	; 255
 60c:	84 e3       	ldi	r24, 0x34	; 52
 60e:	9c e0       	ldi	r25, 0x0C	; 12
 610:	21 50       	subi	r18, 0x01	; 1
 612:	80 40       	sbci	r24, 0x00	; 0
 614:	90 40       	sbci	r25, 0x00	; 0
 616:	e1 f7       	brne	.-8      	; 0x610 <main+0x1e2>
 618:	00 c0       	rjmp	.+0      	; 0x61a <main+0x1ec>
 61a:	00 00       	nop
 61c:	61 cf       	rjmp	.-318    	; 0x4e0 <main+0xb2>

0000061e <__udivmodsi4>:
 61e:	a1 e2       	ldi	r26, 0x21	; 33
 620:	1a 2e       	mov	r1, r26
 622:	aa 1b       	sub	r26, r26
 624:	bb 1b       	sub	r27, r27
 626:	fd 01       	movw	r30, r26
 628:	0d c0       	rjmp	.+26     	; 0x644 <__udivmodsi4_ep>

0000062a <__udivmodsi4_loop>:
 62a:	aa 1f       	adc	r26, r26
 62c:	bb 1f       	adc	r27, r27
 62e:	ee 1f       	adc	r30, r30
 630:	ff 1f       	adc	r31, r31
 632:	a2 17       	cp	r26, r18
 634:	b3 07       	cpc	r27, r19
 636:	e4 07       	cpc	r30, r20
 638:	f5 07       	cpc	r31, r21
 63a:	20 f0       	brcs	.+8      	; 0x644 <__udivmodsi4_ep>
 63c:	a2 1b       	sub	r26, r18
 63e:	b3 0b       	sbc	r27, r19
 640:	e4 0b       	sbc	r30, r20
 642:	f5 0b       	sbc	r31, r21

00000644 <__udivmodsi4_ep>:
 644:	66 1f       	adc	r22, r22
 646:	77 1f       	adc	r23, r23
 648:	88 1f       	adc	r24, r24
 64a:	99 1f       	adc	r25, r25
 64c:	1a 94       	dec	r1
 64e:	69 f7       	brne	.-38     	; 0x62a <__udivmodsi4_loop>
 650:	60 95       	com	r22
 652:	70 95       	com	r23
 654:	80 95       	com	r24
 656:	90 95       	com	r25
 658:	9b 01       	movw	r18, r22
 65a:	ac 01       	movw	r20, r24
 65c:	bd 01       	movw	r22, r26
 65e:	cf 01       	movw	r24, r30
 660:	08 95       	ret

00000662 <__umulhisi3>:
 662:	a2 9f       	mul	r26, r18
 664:	b0 01       	movw	r22, r0
 666:	b3 9f       	mul	r27, r19
 668:	c0 01       	movw	r24, r0
 66a:	a3 9f       	mul	r26, r19
 66c:	70 0d       	add	r23, r0
 66e:	81 1d       	adc	r24, r1
 670:	11 24       	eor	r1, r1
 672:	91 1d       	adc	r25, r1
 674:	b2 9f       	mul	r27, r18
 676:	70 0d       	add	r23, r0
 678:	81 1d       	adc	r24, r1
 67a:	11 24       	eor	r1, r1
 67c:	91 1d       	adc	r25, r1
 67e:	08 95       	ret

00000680 <__itoa_ncheck>:
 680:	bb 27       	eor	r27, r27
 682:	4a 30       	cpi	r20, 0x0A	; 10
 684:	31 f4       	brne	.+12     	; 0x692 <__itoa_ncheck+0x12>
 686:	99 23       	and	r25, r25
 688:	22 f4       	brpl	.+8      	; 0x692 <__itoa_ncheck+0x12>
 68a:	bd e2       	ldi	r27, 0x2D	; 45
 68c:	90 95       	com	r25
 68e:	81 95       	neg	r24
 690:	9f 4f       	sbci	r25, 0xFF	; 255
 692:	0c 94 4c 03 	jmp	0x698	; 0x698 <__utoa_common>

00000696 <__utoa_ncheck>:
 696:	bb 27       	eor	r27, r27

00000698 <__utoa_common>:
 698:	fb 01       	movw	r30, r22
 69a:	55 27       	eor	r21, r21
 69c:	aa 27       	eor	r26, r26
 69e:	88 0f       	add	r24, r24
 6a0:	99 1f       	adc	r25, r25
 6a2:	aa 1f       	adc	r26, r26
 6a4:	a4 17       	cp	r26, r20
 6a6:	10 f0       	brcs	.+4      	; 0x6ac <__utoa_common+0x14>
 6a8:	a4 1b       	sub	r26, r20
 6aa:	83 95       	inc	r24
 6ac:	50 51       	subi	r21, 0x10	; 16
 6ae:	b9 f7       	brne	.-18     	; 0x69e <__utoa_common+0x6>
 6b0:	a0 5d       	subi	r26, 0xD0	; 208
 6b2:	aa 33       	cpi	r26, 0x3A	; 58
 6b4:	08 f0       	brcs	.+2      	; 0x6b8 <__utoa_common+0x20>
 6b6:	a9 5d       	subi	r26, 0xD9	; 217
 6b8:	a1 93       	st	Z+, r26
 6ba:	00 97       	sbiw	r24, 0x00	; 0
 6bc:	79 f7       	brne	.-34     	; 0x69c <__utoa_common+0x4>
 6be:	b1 11       	cpse	r27, r1
 6c0:	b1 93       	st	Z+, r27
 6c2:	11 92       	st	Z+, r1
 6c4:	cb 01       	movw	r24, r22
 6c6:	0c 94 7e 05 	jmp	0xafc	; 0xafc <strrev>

000006ca <sprintf>:
 6ca:	ae e0       	ldi	r26, 0x0E	; 14
 6cc:	b0 e0       	ldi	r27, 0x00	; 0
 6ce:	eb e6       	ldi	r30, 0x6B	; 107
 6d0:	f3 e0       	ldi	r31, 0x03	; 3
 6d2:	0c 94 36 06 	jmp	0xc6c	; 0xc6c <__prologue_saves__+0x1c>
 6d6:	0d 89       	ldd	r16, Y+21	; 0x15
 6d8:	1e 89       	ldd	r17, Y+22	; 0x16
 6da:	86 e0       	ldi	r24, 0x06	; 6
 6dc:	8c 83       	std	Y+4, r24	; 0x04
 6de:	1a 83       	std	Y+2, r17	; 0x02
 6e0:	09 83       	std	Y+1, r16	; 0x01
 6e2:	8f ef       	ldi	r24, 0xFF	; 255
 6e4:	9f e7       	ldi	r25, 0x7F	; 127
 6e6:	9e 83       	std	Y+6, r25	; 0x06
 6e8:	8d 83       	std	Y+5, r24	; 0x05
 6ea:	ae 01       	movw	r20, r28
 6ec:	47 5e       	subi	r20, 0xE7	; 231
 6ee:	5f 4f       	sbci	r21, 0xFF	; 255
 6f0:	6f 89       	ldd	r22, Y+23	; 0x17
 6f2:	78 8d       	ldd	r23, Y+24	; 0x18
 6f4:	ce 01       	movw	r24, r28
 6f6:	01 96       	adiw	r24, 0x01	; 1
 6f8:	0e 94 87 03 	call	0x70e	; 0x70e <vfprintf>
 6fc:	ef 81       	ldd	r30, Y+7	; 0x07
 6fe:	f8 85       	ldd	r31, Y+8	; 0x08
 700:	e0 0f       	add	r30, r16
 702:	f1 1f       	adc	r31, r17
 704:	10 82       	st	Z, r1
 706:	2e 96       	adiw	r28, 0x0e	; 14
 708:	e4 e0       	ldi	r30, 0x04	; 4
 70a:	0c 94 52 06 	jmp	0xca4	; 0xca4 <__epilogue_restores__+0x1c>

0000070e <vfprintf>:
 70e:	ab e0       	ldi	r26, 0x0B	; 11
 710:	b0 e0       	ldi	r27, 0x00	; 0
 712:	ed e8       	ldi	r30, 0x8D	; 141
 714:	f3 e0       	ldi	r31, 0x03	; 3
 716:	0c 94 28 06 	jmp	0xc50	; 0xc50 <__prologue_saves__>
 71a:	6c 01       	movw	r12, r24
 71c:	7b 01       	movw	r14, r22
 71e:	8a 01       	movw	r16, r20
 720:	fc 01       	movw	r30, r24
 722:	17 82       	std	Z+7, r1	; 0x07
 724:	16 82       	std	Z+6, r1	; 0x06
 726:	83 81       	ldd	r24, Z+3	; 0x03
 728:	81 ff       	sbrs	r24, 1
 72a:	cc c1       	rjmp	.+920    	; 0xac4 <__stack+0x1c5>
 72c:	ce 01       	movw	r24, r28
 72e:	01 96       	adiw	r24, 0x01	; 1
 730:	3c 01       	movw	r6, r24
 732:	f6 01       	movw	r30, r12
 734:	93 81       	ldd	r25, Z+3	; 0x03
 736:	f7 01       	movw	r30, r14
 738:	93 fd       	sbrc	r25, 3
 73a:	85 91       	lpm	r24, Z+
 73c:	93 ff       	sbrs	r25, 3
 73e:	81 91       	ld	r24, Z+
 740:	7f 01       	movw	r14, r30
 742:	88 23       	and	r24, r24
 744:	09 f4       	brne	.+2      	; 0x748 <vfprintf+0x3a>
 746:	ba c1       	rjmp	.+884    	; 0xabc <__stack+0x1bd>
 748:	85 32       	cpi	r24, 0x25	; 37
 74a:	39 f4       	brne	.+14     	; 0x75a <vfprintf+0x4c>
 74c:	93 fd       	sbrc	r25, 3
 74e:	85 91       	lpm	r24, Z+
 750:	93 ff       	sbrs	r25, 3
 752:	81 91       	ld	r24, Z+
 754:	7f 01       	movw	r14, r30
 756:	85 32       	cpi	r24, 0x25	; 37
 758:	29 f4       	brne	.+10     	; 0x764 <vfprintf+0x56>
 75a:	b6 01       	movw	r22, r12
 75c:	90 e0       	ldi	r25, 0x00	; 0
 75e:	0e 94 8e 05 	call	0xb1c	; 0xb1c <fputc>
 762:	e7 cf       	rjmp	.-50     	; 0x732 <vfprintf+0x24>
 764:	91 2c       	mov	r9, r1
 766:	21 2c       	mov	r2, r1
 768:	31 2c       	mov	r3, r1
 76a:	ff e1       	ldi	r31, 0x1F	; 31
 76c:	f3 15       	cp	r31, r3
 76e:	d8 f0       	brcs	.+54     	; 0x7a6 <vfprintf+0x98>
 770:	8b 32       	cpi	r24, 0x2B	; 43
 772:	79 f0       	breq	.+30     	; 0x792 <vfprintf+0x84>
 774:	38 f4       	brcc	.+14     	; 0x784 <vfprintf+0x76>
 776:	80 32       	cpi	r24, 0x20	; 32
 778:	79 f0       	breq	.+30     	; 0x798 <vfprintf+0x8a>
 77a:	83 32       	cpi	r24, 0x23	; 35
 77c:	a1 f4       	brne	.+40     	; 0x7a6 <vfprintf+0x98>
 77e:	23 2d       	mov	r18, r3
 780:	20 61       	ori	r18, 0x10	; 16
 782:	1d c0       	rjmp	.+58     	; 0x7be <vfprintf+0xb0>
 784:	8d 32       	cpi	r24, 0x2D	; 45
 786:	61 f0       	breq	.+24     	; 0x7a0 <vfprintf+0x92>
 788:	80 33       	cpi	r24, 0x30	; 48
 78a:	69 f4       	brne	.+26     	; 0x7a6 <vfprintf+0x98>
 78c:	23 2d       	mov	r18, r3
 78e:	21 60       	ori	r18, 0x01	; 1
 790:	16 c0       	rjmp	.+44     	; 0x7be <vfprintf+0xb0>
 792:	83 2d       	mov	r24, r3
 794:	82 60       	ori	r24, 0x02	; 2
 796:	38 2e       	mov	r3, r24
 798:	e3 2d       	mov	r30, r3
 79a:	e4 60       	ori	r30, 0x04	; 4
 79c:	3e 2e       	mov	r3, r30
 79e:	2a c0       	rjmp	.+84     	; 0x7f4 <vfprintf+0xe6>
 7a0:	f3 2d       	mov	r31, r3
 7a2:	f8 60       	ori	r31, 0x08	; 8
 7a4:	1d c0       	rjmp	.+58     	; 0x7e0 <vfprintf+0xd2>
 7a6:	37 fc       	sbrc	r3, 7
 7a8:	2d c0       	rjmp	.+90     	; 0x804 <vfprintf+0xf6>
 7aa:	20 ed       	ldi	r18, 0xD0	; 208
 7ac:	28 0f       	add	r18, r24
 7ae:	2a 30       	cpi	r18, 0x0A	; 10
 7b0:	40 f0       	brcs	.+16     	; 0x7c2 <vfprintf+0xb4>
 7b2:	8e 32       	cpi	r24, 0x2E	; 46
 7b4:	b9 f4       	brne	.+46     	; 0x7e4 <vfprintf+0xd6>
 7b6:	36 fc       	sbrc	r3, 6
 7b8:	81 c1       	rjmp	.+770    	; 0xabc <__stack+0x1bd>
 7ba:	23 2d       	mov	r18, r3
 7bc:	20 64       	ori	r18, 0x40	; 64
 7be:	32 2e       	mov	r3, r18
 7c0:	19 c0       	rjmp	.+50     	; 0x7f4 <vfprintf+0xe6>
 7c2:	36 fe       	sbrs	r3, 6
 7c4:	06 c0       	rjmp	.+12     	; 0x7d2 <vfprintf+0xc4>
 7c6:	8a e0       	ldi	r24, 0x0A	; 10
 7c8:	98 9e       	mul	r9, r24
 7ca:	20 0d       	add	r18, r0
 7cc:	11 24       	eor	r1, r1
 7ce:	92 2e       	mov	r9, r18
 7d0:	11 c0       	rjmp	.+34     	; 0x7f4 <vfprintf+0xe6>
 7d2:	ea e0       	ldi	r30, 0x0A	; 10
 7d4:	2e 9e       	mul	r2, r30
 7d6:	20 0d       	add	r18, r0
 7d8:	11 24       	eor	r1, r1
 7da:	22 2e       	mov	r2, r18
 7dc:	f3 2d       	mov	r31, r3
 7de:	f0 62       	ori	r31, 0x20	; 32
 7e0:	3f 2e       	mov	r3, r31
 7e2:	08 c0       	rjmp	.+16     	; 0x7f4 <vfprintf+0xe6>
 7e4:	8c 36       	cpi	r24, 0x6C	; 108
 7e6:	21 f4       	brne	.+8      	; 0x7f0 <vfprintf+0xe2>
 7e8:	83 2d       	mov	r24, r3
 7ea:	80 68       	ori	r24, 0x80	; 128
 7ec:	38 2e       	mov	r3, r24
 7ee:	02 c0       	rjmp	.+4      	; 0x7f4 <vfprintf+0xe6>
 7f0:	88 36       	cpi	r24, 0x68	; 104
 7f2:	41 f4       	brne	.+16     	; 0x804 <vfprintf+0xf6>
 7f4:	f7 01       	movw	r30, r14
 7f6:	93 fd       	sbrc	r25, 3
 7f8:	85 91       	lpm	r24, Z+
 7fa:	93 ff       	sbrs	r25, 3
 7fc:	81 91       	ld	r24, Z+
 7fe:	7f 01       	movw	r14, r30
 800:	81 11       	cpse	r24, r1
 802:	b3 cf       	rjmp	.-154    	; 0x76a <vfprintf+0x5c>
 804:	98 2f       	mov	r25, r24
 806:	9f 7d       	andi	r25, 0xDF	; 223
 808:	95 54       	subi	r25, 0x45	; 69
 80a:	93 30       	cpi	r25, 0x03	; 3
 80c:	28 f4       	brcc	.+10     	; 0x818 <vfprintf+0x10a>
 80e:	0c 5f       	subi	r16, 0xFC	; 252
 810:	1f 4f       	sbci	r17, 0xFF	; 255
 812:	9f e3       	ldi	r25, 0x3F	; 63
 814:	99 83       	std	Y+1, r25	; 0x01
 816:	0d c0       	rjmp	.+26     	; 0x832 <vfprintf+0x124>
 818:	83 36       	cpi	r24, 0x63	; 99
 81a:	31 f0       	breq	.+12     	; 0x828 <vfprintf+0x11a>
 81c:	83 37       	cpi	r24, 0x73	; 115
 81e:	71 f0       	breq	.+28     	; 0x83c <vfprintf+0x12e>
 820:	83 35       	cpi	r24, 0x53	; 83
 822:	09 f0       	breq	.+2      	; 0x826 <vfprintf+0x118>
 824:	59 c0       	rjmp	.+178    	; 0x8d8 <vfprintf+0x1ca>
 826:	21 c0       	rjmp	.+66     	; 0x86a <vfprintf+0x15c>
 828:	f8 01       	movw	r30, r16
 82a:	80 81       	ld	r24, Z
 82c:	89 83       	std	Y+1, r24	; 0x01
 82e:	0e 5f       	subi	r16, 0xFE	; 254
 830:	1f 4f       	sbci	r17, 0xFF	; 255
 832:	88 24       	eor	r8, r8
 834:	83 94       	inc	r8
 836:	91 2c       	mov	r9, r1
 838:	53 01       	movw	r10, r6
 83a:	13 c0       	rjmp	.+38     	; 0x862 <vfprintf+0x154>
 83c:	28 01       	movw	r4, r16
 83e:	f2 e0       	ldi	r31, 0x02	; 2
 840:	4f 0e       	add	r4, r31
 842:	51 1c       	adc	r5, r1
 844:	f8 01       	movw	r30, r16
 846:	a0 80       	ld	r10, Z
 848:	b1 80       	ldd	r11, Z+1	; 0x01
 84a:	36 fe       	sbrs	r3, 6
 84c:	03 c0       	rjmp	.+6      	; 0x854 <vfprintf+0x146>
 84e:	69 2d       	mov	r22, r9
 850:	70 e0       	ldi	r23, 0x00	; 0
 852:	02 c0       	rjmp	.+4      	; 0x858 <vfprintf+0x14a>
 854:	6f ef       	ldi	r22, 0xFF	; 255
 856:	7f ef       	ldi	r23, 0xFF	; 255
 858:	c5 01       	movw	r24, r10
 85a:	0e 94 73 05 	call	0xae6	; 0xae6 <strnlen>
 85e:	4c 01       	movw	r8, r24
 860:	82 01       	movw	r16, r4
 862:	f3 2d       	mov	r31, r3
 864:	ff 77       	andi	r31, 0x7F	; 127
 866:	3f 2e       	mov	r3, r31
 868:	16 c0       	rjmp	.+44     	; 0x896 <vfprintf+0x188>
 86a:	28 01       	movw	r4, r16
 86c:	22 e0       	ldi	r18, 0x02	; 2
 86e:	42 0e       	add	r4, r18
 870:	51 1c       	adc	r5, r1
 872:	f8 01       	movw	r30, r16
 874:	a0 80       	ld	r10, Z
 876:	b1 80       	ldd	r11, Z+1	; 0x01
 878:	36 fe       	sbrs	r3, 6
 87a:	03 c0       	rjmp	.+6      	; 0x882 <vfprintf+0x174>
 87c:	69 2d       	mov	r22, r9
 87e:	70 e0       	ldi	r23, 0x00	; 0
 880:	02 c0       	rjmp	.+4      	; 0x886 <vfprintf+0x178>
 882:	6f ef       	ldi	r22, 0xFF	; 255
 884:	7f ef       	ldi	r23, 0xFF	; 255
 886:	c5 01       	movw	r24, r10
 888:	0e 94 68 05 	call	0xad0	; 0xad0 <strnlen_P>
 88c:	4c 01       	movw	r8, r24
 88e:	f3 2d       	mov	r31, r3
 890:	f0 68       	ori	r31, 0x80	; 128
 892:	3f 2e       	mov	r3, r31
 894:	82 01       	movw	r16, r4
 896:	33 fc       	sbrc	r3, 3
 898:	1b c0       	rjmp	.+54     	; 0x8d0 <vfprintf+0x1c2>
 89a:	82 2d       	mov	r24, r2
 89c:	90 e0       	ldi	r25, 0x00	; 0
 89e:	88 16       	cp	r8, r24
 8a0:	99 06       	cpc	r9, r25
 8a2:	b0 f4       	brcc	.+44     	; 0x8d0 <vfprintf+0x1c2>
 8a4:	b6 01       	movw	r22, r12
 8a6:	80 e2       	ldi	r24, 0x20	; 32
 8a8:	90 e0       	ldi	r25, 0x00	; 0
 8aa:	0e 94 8e 05 	call	0xb1c	; 0xb1c <fputc>
 8ae:	2a 94       	dec	r2
 8b0:	f4 cf       	rjmp	.-24     	; 0x89a <vfprintf+0x18c>
 8b2:	f5 01       	movw	r30, r10
 8b4:	37 fc       	sbrc	r3, 7
 8b6:	85 91       	lpm	r24, Z+
 8b8:	37 fe       	sbrs	r3, 7
 8ba:	81 91       	ld	r24, Z+
 8bc:	5f 01       	movw	r10, r30
 8be:	b6 01       	movw	r22, r12
 8c0:	90 e0       	ldi	r25, 0x00	; 0
 8c2:	0e 94 8e 05 	call	0xb1c	; 0xb1c <fputc>
 8c6:	21 10       	cpse	r2, r1
 8c8:	2a 94       	dec	r2
 8ca:	21 e0       	ldi	r18, 0x01	; 1
 8cc:	82 1a       	sub	r8, r18
 8ce:	91 08       	sbc	r9, r1
 8d0:	81 14       	cp	r8, r1
 8d2:	91 04       	cpc	r9, r1
 8d4:	71 f7       	brne	.-36     	; 0x8b2 <vfprintf+0x1a4>
 8d6:	e8 c0       	rjmp	.+464    	; 0xaa8 <__stack+0x1a9>
 8d8:	84 36       	cpi	r24, 0x64	; 100
 8da:	11 f0       	breq	.+4      	; 0x8e0 <vfprintf+0x1d2>
 8dc:	89 36       	cpi	r24, 0x69	; 105
 8de:	41 f5       	brne	.+80     	; 0x930 <__stack+0x31>
 8e0:	f8 01       	movw	r30, r16
 8e2:	37 fe       	sbrs	r3, 7
 8e4:	07 c0       	rjmp	.+14     	; 0x8f4 <vfprintf+0x1e6>
 8e6:	60 81       	ld	r22, Z
 8e8:	71 81       	ldd	r23, Z+1	; 0x01
 8ea:	82 81       	ldd	r24, Z+2	; 0x02
 8ec:	93 81       	ldd	r25, Z+3	; 0x03
 8ee:	0c 5f       	subi	r16, 0xFC	; 252
 8f0:	1f 4f       	sbci	r17, 0xFF	; 255
 8f2:	08 c0       	rjmp	.+16     	; 0x904 <__stack+0x5>
 8f4:	60 81       	ld	r22, Z
 8f6:	71 81       	ldd	r23, Z+1	; 0x01
 8f8:	07 2e       	mov	r0, r23
 8fa:	00 0c       	add	r0, r0
 8fc:	88 0b       	sbc	r24, r24
 8fe:	99 0b       	sbc	r25, r25
 900:	0e 5f       	subi	r16, 0xFE	; 254
 902:	1f 4f       	sbci	r17, 0xFF	; 255
 904:	f3 2d       	mov	r31, r3
 906:	ff 76       	andi	r31, 0x6F	; 111
 908:	3f 2e       	mov	r3, r31
 90a:	97 ff       	sbrs	r25, 7
 90c:	09 c0       	rjmp	.+18     	; 0x920 <__stack+0x21>
 90e:	90 95       	com	r25
 910:	80 95       	com	r24
 912:	70 95       	com	r23
 914:	61 95       	neg	r22
 916:	7f 4f       	sbci	r23, 0xFF	; 255
 918:	8f 4f       	sbci	r24, 0xFF	; 255
 91a:	9f 4f       	sbci	r25, 0xFF	; 255
 91c:	f0 68       	ori	r31, 0x80	; 128
 91e:	3f 2e       	mov	r3, r31
 920:	2a e0       	ldi	r18, 0x0A	; 10
 922:	30 e0       	ldi	r19, 0x00	; 0
 924:	a3 01       	movw	r20, r6
 926:	0e 94 ca 05 	call	0xb94	; 0xb94 <__ultoa_invert>
 92a:	88 2e       	mov	r8, r24
 92c:	86 18       	sub	r8, r6
 92e:	45 c0       	rjmp	.+138    	; 0x9ba <__stack+0xbb>
 930:	85 37       	cpi	r24, 0x75	; 117
 932:	31 f4       	brne	.+12     	; 0x940 <__stack+0x41>
 934:	23 2d       	mov	r18, r3
 936:	2f 7e       	andi	r18, 0xEF	; 239
 938:	b2 2e       	mov	r11, r18
 93a:	2a e0       	ldi	r18, 0x0A	; 10
 93c:	30 e0       	ldi	r19, 0x00	; 0
 93e:	25 c0       	rjmp	.+74     	; 0x98a <__stack+0x8b>
 940:	93 2d       	mov	r25, r3
 942:	99 7f       	andi	r25, 0xF9	; 249
 944:	b9 2e       	mov	r11, r25
 946:	8f 36       	cpi	r24, 0x6F	; 111
 948:	c1 f0       	breq	.+48     	; 0x97a <__stack+0x7b>
 94a:	18 f4       	brcc	.+6      	; 0x952 <__stack+0x53>
 94c:	88 35       	cpi	r24, 0x58	; 88
 94e:	79 f0       	breq	.+30     	; 0x96e <__stack+0x6f>
 950:	b5 c0       	rjmp	.+362    	; 0xabc <__stack+0x1bd>
 952:	80 37       	cpi	r24, 0x70	; 112
 954:	19 f0       	breq	.+6      	; 0x95c <__stack+0x5d>
 956:	88 37       	cpi	r24, 0x78	; 120
 958:	21 f0       	breq	.+8      	; 0x962 <__stack+0x63>
 95a:	b0 c0       	rjmp	.+352    	; 0xabc <__stack+0x1bd>
 95c:	e9 2f       	mov	r30, r25
 95e:	e0 61       	ori	r30, 0x10	; 16
 960:	be 2e       	mov	r11, r30
 962:	b4 fe       	sbrs	r11, 4
 964:	0d c0       	rjmp	.+26     	; 0x980 <__stack+0x81>
 966:	fb 2d       	mov	r31, r11
 968:	f4 60       	ori	r31, 0x04	; 4
 96a:	bf 2e       	mov	r11, r31
 96c:	09 c0       	rjmp	.+18     	; 0x980 <__stack+0x81>
 96e:	34 fe       	sbrs	r3, 4
 970:	0a c0       	rjmp	.+20     	; 0x986 <__stack+0x87>
 972:	29 2f       	mov	r18, r25
 974:	26 60       	ori	r18, 0x06	; 6
 976:	b2 2e       	mov	r11, r18
 978:	06 c0       	rjmp	.+12     	; 0x986 <__stack+0x87>
 97a:	28 e0       	ldi	r18, 0x08	; 8
 97c:	30 e0       	ldi	r19, 0x00	; 0
 97e:	05 c0       	rjmp	.+10     	; 0x98a <__stack+0x8b>
 980:	20 e1       	ldi	r18, 0x10	; 16
 982:	30 e0       	ldi	r19, 0x00	; 0
 984:	02 c0       	rjmp	.+4      	; 0x98a <__stack+0x8b>
 986:	20 e1       	ldi	r18, 0x10	; 16
 988:	32 e0       	ldi	r19, 0x02	; 2
 98a:	f8 01       	movw	r30, r16
 98c:	b7 fe       	sbrs	r11, 7
 98e:	07 c0       	rjmp	.+14     	; 0x99e <__stack+0x9f>
 990:	60 81       	ld	r22, Z
 992:	71 81       	ldd	r23, Z+1	; 0x01
 994:	82 81       	ldd	r24, Z+2	; 0x02
 996:	93 81       	ldd	r25, Z+3	; 0x03
 998:	0c 5f       	subi	r16, 0xFC	; 252
 99a:	1f 4f       	sbci	r17, 0xFF	; 255
 99c:	06 c0       	rjmp	.+12     	; 0x9aa <__stack+0xab>
 99e:	60 81       	ld	r22, Z
 9a0:	71 81       	ldd	r23, Z+1	; 0x01
 9a2:	80 e0       	ldi	r24, 0x00	; 0
 9a4:	90 e0       	ldi	r25, 0x00	; 0
 9a6:	0e 5f       	subi	r16, 0xFE	; 254
 9a8:	1f 4f       	sbci	r17, 0xFF	; 255
 9aa:	a3 01       	movw	r20, r6
 9ac:	0e 94 ca 05 	call	0xb94	; 0xb94 <__ultoa_invert>
 9b0:	88 2e       	mov	r8, r24
 9b2:	86 18       	sub	r8, r6
 9b4:	fb 2d       	mov	r31, r11
 9b6:	ff 77       	andi	r31, 0x7F	; 127
 9b8:	3f 2e       	mov	r3, r31
 9ba:	36 fe       	sbrs	r3, 6
 9bc:	0d c0       	rjmp	.+26     	; 0x9d8 <__stack+0xd9>
 9be:	23 2d       	mov	r18, r3
 9c0:	2e 7f       	andi	r18, 0xFE	; 254
 9c2:	a2 2e       	mov	r10, r18
 9c4:	89 14       	cp	r8, r9
 9c6:	58 f4       	brcc	.+22     	; 0x9de <__stack+0xdf>
 9c8:	34 fe       	sbrs	r3, 4
 9ca:	0b c0       	rjmp	.+22     	; 0x9e2 <__stack+0xe3>
 9cc:	32 fc       	sbrc	r3, 2
 9ce:	09 c0       	rjmp	.+18     	; 0x9e2 <__stack+0xe3>
 9d0:	83 2d       	mov	r24, r3
 9d2:	8e 7e       	andi	r24, 0xEE	; 238
 9d4:	a8 2e       	mov	r10, r24
 9d6:	05 c0       	rjmp	.+10     	; 0x9e2 <__stack+0xe3>
 9d8:	b8 2c       	mov	r11, r8
 9da:	a3 2c       	mov	r10, r3
 9dc:	03 c0       	rjmp	.+6      	; 0x9e4 <__stack+0xe5>
 9de:	b8 2c       	mov	r11, r8
 9e0:	01 c0       	rjmp	.+2      	; 0x9e4 <__stack+0xe5>
 9e2:	b9 2c       	mov	r11, r9
 9e4:	a4 fe       	sbrs	r10, 4
 9e6:	0f c0       	rjmp	.+30     	; 0xa06 <__stack+0x107>
 9e8:	fe 01       	movw	r30, r28
 9ea:	e8 0d       	add	r30, r8
 9ec:	f1 1d       	adc	r31, r1
 9ee:	80 81       	ld	r24, Z
 9f0:	80 33       	cpi	r24, 0x30	; 48
 9f2:	21 f4       	brne	.+8      	; 0x9fc <__stack+0xfd>
 9f4:	9a 2d       	mov	r25, r10
 9f6:	99 7e       	andi	r25, 0xE9	; 233
 9f8:	a9 2e       	mov	r10, r25
 9fa:	09 c0       	rjmp	.+18     	; 0xa0e <__stack+0x10f>
 9fc:	a2 fe       	sbrs	r10, 2
 9fe:	06 c0       	rjmp	.+12     	; 0xa0c <__stack+0x10d>
 a00:	b3 94       	inc	r11
 a02:	b3 94       	inc	r11
 a04:	04 c0       	rjmp	.+8      	; 0xa0e <__stack+0x10f>
 a06:	8a 2d       	mov	r24, r10
 a08:	86 78       	andi	r24, 0x86	; 134
 a0a:	09 f0       	breq	.+2      	; 0xa0e <__stack+0x10f>
 a0c:	b3 94       	inc	r11
 a0e:	a3 fc       	sbrc	r10, 3
 a10:	11 c0       	rjmp	.+34     	; 0xa34 <__stack+0x135>
 a12:	a0 fe       	sbrs	r10, 0
 a14:	06 c0       	rjmp	.+12     	; 0xa22 <__stack+0x123>
 a16:	b2 14       	cp	r11, r2
 a18:	88 f4       	brcc	.+34     	; 0xa3c <__stack+0x13d>
 a1a:	28 0c       	add	r2, r8
 a1c:	92 2c       	mov	r9, r2
 a1e:	9b 18       	sub	r9, r11
 a20:	0e c0       	rjmp	.+28     	; 0xa3e <__stack+0x13f>
 a22:	b2 14       	cp	r11, r2
 a24:	60 f4       	brcc	.+24     	; 0xa3e <__stack+0x13f>
 a26:	b6 01       	movw	r22, r12
 a28:	80 e2       	ldi	r24, 0x20	; 32
 a2a:	90 e0       	ldi	r25, 0x00	; 0
 a2c:	0e 94 8e 05 	call	0xb1c	; 0xb1c <fputc>
 a30:	b3 94       	inc	r11
 a32:	f7 cf       	rjmp	.-18     	; 0xa22 <__stack+0x123>
 a34:	b2 14       	cp	r11, r2
 a36:	18 f4       	brcc	.+6      	; 0xa3e <__stack+0x13f>
 a38:	2b 18       	sub	r2, r11
 a3a:	02 c0       	rjmp	.+4      	; 0xa40 <__stack+0x141>
 a3c:	98 2c       	mov	r9, r8
 a3e:	21 2c       	mov	r2, r1
 a40:	a4 fe       	sbrs	r10, 4
 a42:	10 c0       	rjmp	.+32     	; 0xa64 <__stack+0x165>
 a44:	b6 01       	movw	r22, r12
 a46:	80 e3       	ldi	r24, 0x30	; 48
 a48:	90 e0       	ldi	r25, 0x00	; 0
 a4a:	0e 94 8e 05 	call	0xb1c	; 0xb1c <fputc>
 a4e:	a2 fe       	sbrs	r10, 2
 a50:	17 c0       	rjmp	.+46     	; 0xa80 <__stack+0x181>
 a52:	a1 fc       	sbrc	r10, 1
 a54:	03 c0       	rjmp	.+6      	; 0xa5c <__stack+0x15d>
 a56:	88 e7       	ldi	r24, 0x78	; 120
 a58:	90 e0       	ldi	r25, 0x00	; 0
 a5a:	02 c0       	rjmp	.+4      	; 0xa60 <__stack+0x161>
 a5c:	88 e5       	ldi	r24, 0x58	; 88
 a5e:	90 e0       	ldi	r25, 0x00	; 0
 a60:	b6 01       	movw	r22, r12
 a62:	0c c0       	rjmp	.+24     	; 0xa7c <__stack+0x17d>
 a64:	8a 2d       	mov	r24, r10
 a66:	86 78       	andi	r24, 0x86	; 134
 a68:	59 f0       	breq	.+22     	; 0xa80 <__stack+0x181>
 a6a:	a1 fe       	sbrs	r10, 1
 a6c:	02 c0       	rjmp	.+4      	; 0xa72 <__stack+0x173>
 a6e:	8b e2       	ldi	r24, 0x2B	; 43
 a70:	01 c0       	rjmp	.+2      	; 0xa74 <__stack+0x175>
 a72:	80 e2       	ldi	r24, 0x20	; 32
 a74:	a7 fc       	sbrc	r10, 7
 a76:	8d e2       	ldi	r24, 0x2D	; 45
 a78:	b6 01       	movw	r22, r12
 a7a:	90 e0       	ldi	r25, 0x00	; 0
 a7c:	0e 94 8e 05 	call	0xb1c	; 0xb1c <fputc>
 a80:	89 14       	cp	r8, r9
 a82:	38 f4       	brcc	.+14     	; 0xa92 <__stack+0x193>
 a84:	b6 01       	movw	r22, r12
 a86:	80 e3       	ldi	r24, 0x30	; 48
 a88:	90 e0       	ldi	r25, 0x00	; 0
 a8a:	0e 94 8e 05 	call	0xb1c	; 0xb1c <fputc>
 a8e:	9a 94       	dec	r9
 a90:	f7 cf       	rjmp	.-18     	; 0xa80 <__stack+0x181>
 a92:	8a 94       	dec	r8
 a94:	f3 01       	movw	r30, r6
 a96:	e8 0d       	add	r30, r8
 a98:	f1 1d       	adc	r31, r1
 a9a:	80 81       	ld	r24, Z
 a9c:	b6 01       	movw	r22, r12
 a9e:	90 e0       	ldi	r25, 0x00	; 0
 aa0:	0e 94 8e 05 	call	0xb1c	; 0xb1c <fputc>
 aa4:	81 10       	cpse	r8, r1
 aa6:	f5 cf       	rjmp	.-22     	; 0xa92 <__stack+0x193>
 aa8:	22 20       	and	r2, r2
 aaa:	09 f4       	brne	.+2      	; 0xaae <__stack+0x1af>
 aac:	42 ce       	rjmp	.-892    	; 0x732 <vfprintf+0x24>
 aae:	b6 01       	movw	r22, r12
 ab0:	80 e2       	ldi	r24, 0x20	; 32
 ab2:	90 e0       	ldi	r25, 0x00	; 0
 ab4:	0e 94 8e 05 	call	0xb1c	; 0xb1c <fputc>
 ab8:	2a 94       	dec	r2
 aba:	f6 cf       	rjmp	.-20     	; 0xaa8 <__stack+0x1a9>
 abc:	f6 01       	movw	r30, r12
 abe:	86 81       	ldd	r24, Z+6	; 0x06
 ac0:	97 81       	ldd	r25, Z+7	; 0x07
 ac2:	02 c0       	rjmp	.+4      	; 0xac8 <__stack+0x1c9>
 ac4:	8f ef       	ldi	r24, 0xFF	; 255
 ac6:	9f ef       	ldi	r25, 0xFF	; 255
 ac8:	2b 96       	adiw	r28, 0x0b	; 11
 aca:	e2 e1       	ldi	r30, 0x12	; 18
 acc:	0c 94 44 06 	jmp	0xc88	; 0xc88 <__epilogue_restores__>

00000ad0 <strnlen_P>:
 ad0:	fc 01       	movw	r30, r24
 ad2:	05 90       	lpm	r0, Z+
 ad4:	61 50       	subi	r22, 0x01	; 1
 ad6:	70 40       	sbci	r23, 0x00	; 0
 ad8:	01 10       	cpse	r0, r1
 ada:	d8 f7       	brcc	.-10     	; 0xad2 <strnlen_P+0x2>
 adc:	80 95       	com	r24
 ade:	90 95       	com	r25
 ae0:	8e 0f       	add	r24, r30
 ae2:	9f 1f       	adc	r25, r31
 ae4:	08 95       	ret

00000ae6 <strnlen>:
 ae6:	fc 01       	movw	r30, r24
 ae8:	61 50       	subi	r22, 0x01	; 1
 aea:	70 40       	sbci	r23, 0x00	; 0
 aec:	01 90       	ld	r0, Z+
 aee:	01 10       	cpse	r0, r1
 af0:	d8 f7       	brcc	.-10     	; 0xae8 <strnlen+0x2>
 af2:	80 95       	com	r24
 af4:	90 95       	com	r25
 af6:	8e 0f       	add	r24, r30
 af8:	9f 1f       	adc	r25, r31
 afa:	08 95       	ret

00000afc <strrev>:
 afc:	dc 01       	movw	r26, r24
 afe:	fc 01       	movw	r30, r24
 b00:	67 2f       	mov	r22, r23
 b02:	71 91       	ld	r23, Z+
 b04:	77 23       	and	r23, r23
 b06:	e1 f7       	brne	.-8      	; 0xb00 <strrev+0x4>
 b08:	32 97       	sbiw	r30, 0x02	; 2
 b0a:	04 c0       	rjmp	.+8      	; 0xb14 <strrev+0x18>
 b0c:	7c 91       	ld	r23, X
 b0e:	6d 93       	st	X+, r22
 b10:	70 83       	st	Z, r23
 b12:	62 91       	ld	r22, -Z
 b14:	ae 17       	cp	r26, r30
 b16:	bf 07       	cpc	r27, r31
 b18:	c8 f3       	brcs	.-14     	; 0xb0c <strrev+0x10>
 b1a:	08 95       	ret

00000b1c <fputc>:
 b1c:	0f 93       	push	r16
 b1e:	1f 93       	push	r17
 b20:	cf 93       	push	r28
 b22:	df 93       	push	r29
 b24:	fb 01       	movw	r30, r22
 b26:	23 81       	ldd	r18, Z+3	; 0x03
 b28:	21 fd       	sbrc	r18, 1
 b2a:	03 c0       	rjmp	.+6      	; 0xb32 <fputc+0x16>
 b2c:	8f ef       	ldi	r24, 0xFF	; 255
 b2e:	9f ef       	ldi	r25, 0xFF	; 255
 b30:	2c c0       	rjmp	.+88     	; 0xb8a <fputc+0x6e>
 b32:	22 ff       	sbrs	r18, 2
 b34:	16 c0       	rjmp	.+44     	; 0xb62 <fputc+0x46>
 b36:	46 81       	ldd	r20, Z+6	; 0x06
 b38:	57 81       	ldd	r21, Z+7	; 0x07
 b3a:	24 81       	ldd	r18, Z+4	; 0x04
 b3c:	35 81       	ldd	r19, Z+5	; 0x05
 b3e:	42 17       	cp	r20, r18
 b40:	53 07       	cpc	r21, r19
 b42:	44 f4       	brge	.+16     	; 0xb54 <fputc+0x38>
 b44:	a0 81       	ld	r26, Z
 b46:	b1 81       	ldd	r27, Z+1	; 0x01
 b48:	9d 01       	movw	r18, r26
 b4a:	2f 5f       	subi	r18, 0xFF	; 255
 b4c:	3f 4f       	sbci	r19, 0xFF	; 255
 b4e:	31 83       	std	Z+1, r19	; 0x01
 b50:	20 83       	st	Z, r18
 b52:	8c 93       	st	X, r24
 b54:	26 81       	ldd	r18, Z+6	; 0x06
 b56:	37 81       	ldd	r19, Z+7	; 0x07
 b58:	2f 5f       	subi	r18, 0xFF	; 255
 b5a:	3f 4f       	sbci	r19, 0xFF	; 255
 b5c:	37 83       	std	Z+7, r19	; 0x07
 b5e:	26 83       	std	Z+6, r18	; 0x06
 b60:	14 c0       	rjmp	.+40     	; 0xb8a <fputc+0x6e>
 b62:	8b 01       	movw	r16, r22
 b64:	ec 01       	movw	r28, r24
 b66:	fb 01       	movw	r30, r22
 b68:	00 84       	ldd	r0, Z+8	; 0x08
 b6a:	f1 85       	ldd	r31, Z+9	; 0x09
 b6c:	e0 2d       	mov	r30, r0
 b6e:	09 95       	icall
 b70:	89 2b       	or	r24, r25
 b72:	e1 f6       	brne	.-72     	; 0xb2c <fputc+0x10>
 b74:	d8 01       	movw	r26, r16
 b76:	16 96       	adiw	r26, 0x06	; 6
 b78:	8d 91       	ld	r24, X+
 b7a:	9c 91       	ld	r25, X
 b7c:	17 97       	sbiw	r26, 0x07	; 7
 b7e:	01 96       	adiw	r24, 0x01	; 1
 b80:	17 96       	adiw	r26, 0x07	; 7
 b82:	9c 93       	st	X, r25
 b84:	8e 93       	st	-X, r24
 b86:	16 97       	sbiw	r26, 0x06	; 6
 b88:	ce 01       	movw	r24, r28
 b8a:	df 91       	pop	r29
 b8c:	cf 91       	pop	r28
 b8e:	1f 91       	pop	r17
 b90:	0f 91       	pop	r16
 b92:	08 95       	ret

00000b94 <__ultoa_invert>:
 b94:	fa 01       	movw	r30, r20
 b96:	aa 27       	eor	r26, r26
 b98:	28 30       	cpi	r18, 0x08	; 8
 b9a:	51 f1       	breq	.+84     	; 0xbf0 <__ultoa_invert+0x5c>
 b9c:	20 31       	cpi	r18, 0x10	; 16
 b9e:	81 f1       	breq	.+96     	; 0xc00 <__ultoa_invert+0x6c>
 ba0:	e8 94       	clt
 ba2:	6f 93       	push	r22
 ba4:	6e 7f       	andi	r22, 0xFE	; 254
 ba6:	6e 5f       	subi	r22, 0xFE	; 254
 ba8:	7f 4f       	sbci	r23, 0xFF	; 255
 baa:	8f 4f       	sbci	r24, 0xFF	; 255
 bac:	9f 4f       	sbci	r25, 0xFF	; 255
 bae:	af 4f       	sbci	r26, 0xFF	; 255
 bb0:	b1 e0       	ldi	r27, 0x01	; 1
 bb2:	3e d0       	rcall	.+124    	; 0xc30 <__ultoa_invert+0x9c>
 bb4:	b4 e0       	ldi	r27, 0x04	; 4
 bb6:	3c d0       	rcall	.+120    	; 0xc30 <__ultoa_invert+0x9c>
 bb8:	67 0f       	add	r22, r23
 bba:	78 1f       	adc	r23, r24
 bbc:	89 1f       	adc	r24, r25
 bbe:	9a 1f       	adc	r25, r26
 bc0:	a1 1d       	adc	r26, r1
 bc2:	68 0f       	add	r22, r24
 bc4:	79 1f       	adc	r23, r25
 bc6:	8a 1f       	adc	r24, r26
 bc8:	91 1d       	adc	r25, r1
 bca:	a1 1d       	adc	r26, r1
 bcc:	6a 0f       	add	r22, r26
 bce:	71 1d       	adc	r23, r1
 bd0:	81 1d       	adc	r24, r1
 bd2:	91 1d       	adc	r25, r1
 bd4:	a1 1d       	adc	r26, r1
 bd6:	20 d0       	rcall	.+64     	; 0xc18 <__ultoa_invert+0x84>
 bd8:	09 f4       	brne	.+2      	; 0xbdc <__ultoa_invert+0x48>
 bda:	68 94       	set
 bdc:	3f 91       	pop	r19
 bde:	2a e0       	ldi	r18, 0x0A	; 10
 be0:	26 9f       	mul	r18, r22
 be2:	11 24       	eor	r1, r1
 be4:	30 19       	sub	r19, r0
 be6:	30 5d       	subi	r19, 0xD0	; 208
 be8:	31 93       	st	Z+, r19
 bea:	de f6       	brtc	.-74     	; 0xba2 <__ultoa_invert+0xe>
 bec:	cf 01       	movw	r24, r30
 bee:	08 95       	ret
 bf0:	46 2f       	mov	r20, r22
 bf2:	47 70       	andi	r20, 0x07	; 7
 bf4:	40 5d       	subi	r20, 0xD0	; 208
 bf6:	41 93       	st	Z+, r20
 bf8:	b3 e0       	ldi	r27, 0x03	; 3
 bfa:	0f d0       	rcall	.+30     	; 0xc1a <__ultoa_invert+0x86>
 bfc:	c9 f7       	brne	.-14     	; 0xbf0 <__ultoa_invert+0x5c>
 bfe:	f6 cf       	rjmp	.-20     	; 0xbec <__ultoa_invert+0x58>
 c00:	46 2f       	mov	r20, r22
 c02:	4f 70       	andi	r20, 0x0F	; 15
 c04:	40 5d       	subi	r20, 0xD0	; 208
 c06:	4a 33       	cpi	r20, 0x3A	; 58
 c08:	18 f0       	brcs	.+6      	; 0xc10 <__ultoa_invert+0x7c>
 c0a:	49 5d       	subi	r20, 0xD9	; 217
 c0c:	31 fd       	sbrc	r19, 1
 c0e:	40 52       	subi	r20, 0x20	; 32
 c10:	41 93       	st	Z+, r20
 c12:	02 d0       	rcall	.+4      	; 0xc18 <__ultoa_invert+0x84>
 c14:	a9 f7       	brne	.-22     	; 0xc00 <__ultoa_invert+0x6c>
 c16:	ea cf       	rjmp	.-44     	; 0xbec <__ultoa_invert+0x58>
 c18:	b4 e0       	ldi	r27, 0x04	; 4
 c1a:	a6 95       	lsr	r26
 c1c:	97 95       	ror	r25
 c1e:	87 95       	ror	r24
 c20:	77 95       	ror	r23
 c22:	67 95       	ror	r22
 c24:	ba 95       	dec	r27
 c26:	c9 f7       	brne	.-14     	; 0xc1a <__ultoa_invert+0x86>
 c28:	00 97       	sbiw	r24, 0x00	; 0
 c2a:	61 05       	cpc	r22, r1
 c2c:	71 05       	cpc	r23, r1
 c2e:	08 95       	ret
 c30:	9b 01       	movw	r18, r22
 c32:	ac 01       	movw	r20, r24
 c34:	0a 2e       	mov	r0, r26
 c36:	06 94       	lsr	r0
 c38:	57 95       	ror	r21
 c3a:	47 95       	ror	r20
 c3c:	37 95       	ror	r19
 c3e:	27 95       	ror	r18
 c40:	ba 95       	dec	r27
 c42:	c9 f7       	brne	.-14     	; 0xc36 <__ultoa_invert+0xa2>
 c44:	62 0f       	add	r22, r18
 c46:	73 1f       	adc	r23, r19
 c48:	84 1f       	adc	r24, r20
 c4a:	95 1f       	adc	r25, r21
 c4c:	a0 1d       	adc	r26, r0
 c4e:	08 95       	ret

00000c50 <__prologue_saves__>:
 c50:	2f 92       	push	r2
 c52:	3f 92       	push	r3
 c54:	4f 92       	push	r4
 c56:	5f 92       	push	r5
 c58:	6f 92       	push	r6
 c5a:	7f 92       	push	r7
 c5c:	8f 92       	push	r8
 c5e:	9f 92       	push	r9
 c60:	af 92       	push	r10
 c62:	bf 92       	push	r11
 c64:	cf 92       	push	r12
 c66:	df 92       	push	r13
 c68:	ef 92       	push	r14
 c6a:	ff 92       	push	r15
 c6c:	0f 93       	push	r16
 c6e:	1f 93       	push	r17
 c70:	cf 93       	push	r28
 c72:	df 93       	push	r29
 c74:	cd b7       	in	r28, 0x3d	; 61
 c76:	de b7       	in	r29, 0x3e	; 62
 c78:	ca 1b       	sub	r28, r26
 c7a:	db 0b       	sbc	r29, r27
 c7c:	0f b6       	in	r0, 0x3f	; 63
 c7e:	f8 94       	cli
 c80:	de bf       	out	0x3e, r29	; 62
 c82:	0f be       	out	0x3f, r0	; 63
 c84:	cd bf       	out	0x3d, r28	; 61
 c86:	09 94       	ijmp

00000c88 <__epilogue_restores__>:
 c88:	2a 88       	ldd	r2, Y+18	; 0x12
 c8a:	39 88       	ldd	r3, Y+17	; 0x11
 c8c:	48 88       	ldd	r4, Y+16	; 0x10
 c8e:	5f 84       	ldd	r5, Y+15	; 0x0f
 c90:	6e 84       	ldd	r6, Y+14	; 0x0e
 c92:	7d 84       	ldd	r7, Y+13	; 0x0d
 c94:	8c 84       	ldd	r8, Y+12	; 0x0c
 c96:	9b 84       	ldd	r9, Y+11	; 0x0b
 c98:	aa 84       	ldd	r10, Y+10	; 0x0a
 c9a:	b9 84       	ldd	r11, Y+9	; 0x09
 c9c:	c8 84       	ldd	r12, Y+8	; 0x08
 c9e:	df 80       	ldd	r13, Y+7	; 0x07
 ca0:	ee 80       	ldd	r14, Y+6	; 0x06
 ca2:	fd 80       	ldd	r15, Y+5	; 0x05
 ca4:	0c 81       	ldd	r16, Y+4	; 0x04
 ca6:	1b 81       	ldd	r17, Y+3	; 0x03
 ca8:	aa 81       	ldd	r26, Y+2	; 0x02
 caa:	b9 81       	ldd	r27, Y+1	; 0x01
 cac:	ce 0f       	add	r28, r30
 cae:	d1 1d       	adc	r29, r1
 cb0:	0f b6       	in	r0, 0x3f	; 63
 cb2:	f8 94       	cli
 cb4:	de bf       	out	0x3e, r29	; 62
 cb6:	0f be       	out	0x3f, r0	; 63
 cb8:	cd bf       	out	0x3d, r28	; 61
 cba:	ed 01       	movw	r28, r26
 cbc:	08 95       	ret

00000cbe <_exit>:
 cbe:	f8 94       	cli

00000cc0 <__stop_program>:
 cc0:	ff cf       	rjmp	.-2      	; 0xcc0 <__stop_program>
